
Brave_Adventurer.elf:     file format elf32-avr

Sections:
Idx Name          Size      VMA       LMA       File off  Algn
  0 .data         0000013e  00800200  00001ab2  00001b46  2**0
                  CONTENTS, ALLOC, LOAD, DATA
  1 .text         00001ab2  00000000  00000000  00000094  2**1
                  CONTENTS, ALLOC, LOAD, READONLY, CODE
  2 .bss          00001e7e  0080033e  0080033e  00001c84  2**0
                  ALLOC
  3 .comment      00000011  00000000  00000000  00001c84  2**0
                  CONTENTS, READONLY
  4 .note.gnu.avr.deviceinfo 00000040  00000000  00000000  00001c98  2**2
                  CONTENTS, READONLY
  5 .debug_info   00000bbc  00000000  00000000  00001cd8  2**0
                  CONTENTS, READONLY, DEBUGGING
  6 .debug_abbrev 00000b1a  00000000  00000000  00002894  2**0
                  CONTENTS, READONLY, DEBUGGING
  7 .debug_line   0000001a  00000000  00000000  000033ae  2**0
                  CONTENTS, READONLY, DEBUGGING
  8 .debug_str    000003e6  00000000  00000000  000033c8  2**0
                  CONTENTS, READONLY, DEBUGGING

Disassembly of section .text:

00000000 <__vectors>:
       0:	0c 94 72 00 	jmp	0xe4	; 0xe4 <__ctors_end>
       4:	0c 94 93 00 	jmp	0x126	; 0x126 <__bad_interrupt>
       8:	0c 94 93 00 	jmp	0x126	; 0x126 <__bad_interrupt>
       c:	0c 94 93 00 	jmp	0x126	; 0x126 <__bad_interrupt>
      10:	0c 94 93 00 	jmp	0x126	; 0x126 <__bad_interrupt>
      14:	0c 94 93 00 	jmp	0x126	; 0x126 <__bad_interrupt>
      18:	0c 94 93 00 	jmp	0x126	; 0x126 <__bad_interrupt>
      1c:	0c 94 93 00 	jmp	0x126	; 0x126 <__bad_interrupt>
      20:	0c 94 93 00 	jmp	0x126	; 0x126 <__bad_interrupt>
      24:	0c 94 93 00 	jmp	0x126	; 0x126 <__bad_interrupt>
      28:	0c 94 93 00 	jmp	0x126	; 0x126 <__bad_interrupt>
      2c:	0c 94 93 00 	jmp	0x126	; 0x126 <__bad_interrupt>
      30:	0c 94 93 00 	jmp	0x126	; 0x126 <__bad_interrupt>
      34:	0c 94 93 00 	jmp	0x126	; 0x126 <__bad_interrupt>
      38:	0c 94 93 00 	jmp	0x126	; 0x126 <__bad_interrupt>
      3c:	0c 94 93 00 	jmp	0x126	; 0x126 <__bad_interrupt>
      40:	0c 94 93 00 	jmp	0x126	; 0x126 <__bad_interrupt>
      44:	0c 94 93 00 	jmp	0x126	; 0x126 <__bad_interrupt>
      48:	0c 94 93 00 	jmp	0x126	; 0x126 <__bad_interrupt>
      4c:	0c 94 93 00 	jmp	0x126	; 0x126 <__bad_interrupt>
      50:	0c 94 93 00 	jmp	0x126	; 0x126 <__bad_interrupt>
      54:	0c 94 93 00 	jmp	0x126	; 0x126 <__bad_interrupt>
      58:	0c 94 93 00 	jmp	0x126	; 0x126 <__bad_interrupt>
      5c:	0c 94 93 00 	jmp	0x126	; 0x126 <__bad_interrupt>
      60:	0c 94 93 00 	jmp	0x126	; 0x126 <__bad_interrupt>
      64:	0c 94 93 00 	jmp	0x126	; 0x126 <__bad_interrupt>
      68:	0c 94 93 00 	jmp	0x126	; 0x126 <__bad_interrupt>
      6c:	0c 94 93 00 	jmp	0x126	; 0x126 <__bad_interrupt>
      70:	0c 94 93 00 	jmp	0x126	; 0x126 <__bad_interrupt>
      74:	0c 94 93 00 	jmp	0x126	; 0x126 <__bad_interrupt>
      78:	0c 94 93 00 	jmp	0x126	; 0x126 <__bad_interrupt>
      7c:	0c 94 93 00 	jmp	0x126	; 0x126 <__bad_interrupt>
      80:	0c 94 93 00 	jmp	0x126	; 0x126 <__bad_interrupt>
      84:	0c 94 93 00 	jmp	0x126	; 0x126 <__bad_interrupt>
      88:	0c 94 93 00 	jmp	0x126	; 0x126 <__bad_interrupt>
      8c:	0c 94 93 00 	jmp	0x126	; 0x126 <__bad_interrupt>
      90:	0c 94 93 00 	jmp	0x126	; 0x126 <__bad_interrupt>
      94:	0c 94 93 00 	jmp	0x126	; 0x126 <__bad_interrupt>
      98:	0c 94 93 00 	jmp	0x126	; 0x126 <__bad_interrupt>
      9c:	0c 94 93 00 	jmp	0x126	; 0x126 <__bad_interrupt>
      a0:	0c 94 93 00 	jmp	0x126	; 0x126 <__bad_interrupt>
      a4:	0c 94 93 00 	jmp	0x126	; 0x126 <__bad_interrupt>
      a8:	0c 94 93 00 	jmp	0x126	; 0x126 <__bad_interrupt>
      ac:	0c 94 93 00 	jmp	0x126	; 0x126 <__bad_interrupt>
      b0:	0c 94 93 00 	jmp	0x126	; 0x126 <__bad_interrupt>
      b4:	0c 94 93 00 	jmp	0x126	; 0x126 <__bad_interrupt>
      b8:	0c 94 93 00 	jmp	0x126	; 0x126 <__bad_interrupt>
      bc:	0c 94 93 00 	jmp	0x126	; 0x126 <__bad_interrupt>
      c0:	0c 94 93 00 	jmp	0x126	; 0x126 <__bad_interrupt>
      c4:	0c 94 93 00 	jmp	0x126	; 0x126 <__bad_interrupt>
      c8:	0c 94 93 00 	jmp	0x126	; 0x126 <__bad_interrupt>
      cc:	0c 94 93 00 	jmp	0x126	; 0x126 <__bad_interrupt>
      d0:	0c 94 93 00 	jmp	0x126	; 0x126 <__bad_interrupt>
      d4:	0c 94 93 00 	jmp	0x126	; 0x126 <__bad_interrupt>
      d8:	0c 94 93 00 	jmp	0x126	; 0x126 <__bad_interrupt>
      dc:	0c 94 93 00 	jmp	0x126	; 0x126 <__bad_interrupt>
      e0:	0c 94 93 00 	jmp	0x126	; 0x126 <__bad_interrupt>

000000e4 <__ctors_end>:
      e4:	11 24       	eor	r1, r1
      e6:	1f be       	out	0x3f, r1	; 63
      e8:	cf ef       	ldi	r28, 0xFF	; 255
      ea:	d1 e2       	ldi	r29, 0x21	; 33
      ec:	de bf       	out	0x3e, r29	; 62
      ee:	cd bf       	out	0x3d, r28	; 61
      f0:	00 e0       	ldi	r16, 0x00	; 0
      f2:	0c bf       	out	0x3c, r16	; 60

000000f4 <__do_copy_data>:
      f4:	13 e0       	ldi	r17, 0x03	; 3
      f6:	a0 e0       	ldi	r26, 0x00	; 0
      f8:	b2 e0       	ldi	r27, 0x02	; 2
      fa:	e2 eb       	ldi	r30, 0xB2	; 178
      fc:	fa e1       	ldi	r31, 0x1A	; 26
      fe:	00 e0       	ldi	r16, 0x00	; 0
     100:	0b bf       	out	0x3b, r16	; 59
     102:	02 c0       	rjmp	.+4      	; 0x108 <__do_copy_data+0x14>
     104:	07 90       	elpm	r0, Z+
     106:	0d 92       	st	X+, r0
     108:	ae 33       	cpi	r26, 0x3E	; 62
     10a:	b1 07       	cpc	r27, r17
     10c:	d9 f7       	brne	.-10     	; 0x104 <__do_copy_data+0x10>

0000010e <__do_clear_bss>:
     10e:	21 e2       	ldi	r18, 0x21	; 33
     110:	ae e3       	ldi	r26, 0x3E	; 62
     112:	b3 e0       	ldi	r27, 0x03	; 3
     114:	01 c0       	rjmp	.+2      	; 0x118 <.do_clear_bss_start>

00000116 <.do_clear_bss_loop>:
     116:	1d 92       	st	X+, r1

00000118 <.do_clear_bss_start>:
     118:	ac 3b       	cpi	r26, 0xBC	; 188
     11a:	b2 07       	cpc	r27, r18
     11c:	e1 f7       	brne	.-8      	; 0x116 <.do_clear_bss_loop>
     11e:	0e 94 2e 0b 	call	0x165c	; 0x165c <main>
     122:	0c 94 57 0d 	jmp	0x1aae	; 0x1aae <_exit>

00000126 <__bad_interrupt>:
     126:	0c 94 00 00 	jmp	0	; 0x0 <__vectors>

0000012a <FiniteState>:
     12a:	cf 93       	push	r28
     12c:	c8 2f       	mov	r28, r24
     12e:	82 30       	cpi	r24, 0x02	; 2
     130:	09 f4       	brne	.+2      	; 0x134 <FiniteState+0xa>
     132:	42 c0       	rjmp	.+132    	; 0x1b8 <FiniteState+0x8e>
     134:	28 f4       	brcc	.+10     	; 0x140 <FiniteState+0x16>
     136:	88 23       	and	r24, r24
     138:	81 f0       	breq	.+32     	; 0x15a <FiniteState+0x30>
     13a:	81 30       	cpi	r24, 0x01	; 1
     13c:	21 f1       	breq	.+72     	; 0x186 <FiniteState+0x5c>
     13e:	8d c0       	rjmp	.+282    	; 0x25a <FiniteState+0x130>
     140:	84 30       	cpi	r24, 0x04	; 4
     142:	09 f4       	brne	.+2      	; 0x146 <FiniteState+0x1c>
     144:	76 c0       	rjmp	.+236    	; 0x232 <FiniteState+0x108>
     146:	08 f4       	brcc	.+2      	; 0x14a <FiniteState+0x20>
     148:	49 c0       	rjmp	.+146    	; 0x1dc <FiniteState+0xb2>
     14a:	85 30       	cpi	r24, 0x05	; 5
     14c:	09 f0       	breq	.+2      	; 0x150 <FiniteState+0x26>
     14e:	85 c0       	rjmp	.+266    	; 0x25a <FiniteState+0x130>
     150:	0e 94 0b 09 	call	0x1216	; 0x1216 <stops>
     154:	c0 93 b0 21 	sts	0x21B0, r28	; 0x8021b0 <StateRobo>
     158:	80 c0       	rjmp	.+256    	; 0x25a <FiniteState+0x130>
     15a:	60 91 44 03 	lds	r22, 0x0344	; 0x800344 <CurrentPos+0x2>
     15e:	70 91 45 03 	lds	r23, 0x0345	; 0x800345 <CurrentPos+0x3>
     162:	80 91 42 03 	lds	r24, 0x0342	; 0x800342 <CurrentPos>
     166:	90 91 43 03 	lds	r25, 0x0343	; 0x800343 <CurrentPos+0x1>
     16a:	0e 94 87 01 	call	0x30e	; 0x30e <CheckObs>
     16e:	0e 94 7b 09 	call	0x12f6	; 0x12f6 <WhereYouGo>
     172:	81 e0       	ldi	r24, 0x01	; 1
     174:	80 93 b0 21 	sts	0x21B0, r24	; 0x8021b0 <StateRobo>
     178:	80 e0       	ldi	r24, 0x00	; 0
     17a:	92 e0       	ldi	r25, 0x02	; 2
     17c:	0e 94 2a 0a 	call	0x1454	; 0x1454 <printString>
     180:	10 92 46 03 	sts	0x0346, r1	; 0x800346 <CurStateRobo>
     184:	6a c0       	rjmp	.+212    	; 0x25a <FiniteState+0x130>
     186:	60 91 44 03 	lds	r22, 0x0344	; 0x800344 <CurrentPos+0x2>
     18a:	70 91 45 03 	lds	r23, 0x0345	; 0x800345 <CurrentPos+0x3>
     18e:	80 91 42 03 	lds	r24, 0x0342	; 0x800342 <CurrentPos>
     192:	90 91 43 03 	lds	r25, 0x0343	; 0x800343 <CurrentPos+0x1>
     196:	0e 94 87 01 	call	0x30e	; 0x30e <CheckObs>
     19a:	81 30       	cpi	r24, 0x01	; 1
     19c:	41 f4       	brne	.+16     	; 0x1ae <FiniteState+0x84>
     19e:	82 e0       	ldi	r24, 0x02	; 2
     1a0:	80 93 b0 21 	sts	0x21B0, r24	; 0x8021b0 <StateRobo>
     1a4:	89 e0       	ldi	r24, 0x09	; 9
     1a6:	92 e0       	ldi	r25, 0x02	; 2
     1a8:	0e 94 2a 0a 	call	0x1454	; 0x1454 <printString>
     1ac:	03 c0       	rjmp	.+6      	; 0x1b4 <FiniteState+0x8a>
     1ae:	83 e0       	ldi	r24, 0x03	; 3
     1b0:	80 93 b0 21 	sts	0x21B0, r24	; 0x8021b0 <StateRobo>
     1b4:	81 e0       	ldi	r24, 0x01	; 1
     1b6:	4f c0       	rjmp	.+158    	; 0x256 <FiniteState+0x12c>
     1b8:	0e 94 7b 09 	call	0x12f6	; 0x12f6 <WhereYouGo>
     1bc:	88 e1       	ldi	r24, 0x18	; 24
     1be:	92 e0       	ldi	r25, 0x02	; 2
     1c0:	0e 94 2a 0a 	call	0x1454	; 0x1454 <printString>
     1c4:	80 91 46 03 	lds	r24, 0x0346	; 0x800346 <CurStateRobo>
     1c8:	81 30       	cpi	r24, 0x01	; 1
     1ca:	21 f0       	breq	.+8      	; 0x1d4 <FiniteState+0xaa>
     1cc:	83 30       	cpi	r24, 0x03	; 3
     1ce:	11 f0       	breq	.+4      	; 0x1d4 <FiniteState+0xaa>
     1d0:	84 30       	cpi	r24, 0x04	; 4
     1d2:	11 f4       	brne	.+4      	; 0x1d8 <FiniteState+0xae>
     1d4:	80 93 b0 21 	sts	0x21B0, r24	; 0x8021b0 <StateRobo>
     1d8:	82 e0       	ldi	r24, 0x02	; 2
     1da:	3d c0       	rjmp	.+122    	; 0x256 <FiniteState+0x12c>
     1dc:	60 91 44 03 	lds	r22, 0x0344	; 0x800344 <CurrentPos+0x2>
     1e0:	70 91 45 03 	lds	r23, 0x0345	; 0x800345 <CurrentPos+0x3>
     1e4:	80 91 42 03 	lds	r24, 0x0342	; 0x800342 <CurrentPos>
     1e8:	90 91 43 03 	lds	r25, 0x0343	; 0x800343 <CurrentPos+0x1>
     1ec:	0e 94 be 08 	call	0x117c	; 0x117c <FindTheDest>
     1f0:	c8 2f       	mov	r28, r24
     1f2:	80 93 b1 21 	sts	0x21B1, r24	; 0x8021b1 <imstuck>
     1f6:	81 11       	cpse	r24, r1
     1f8:	08 c0       	rjmp	.+16     	; 0x20a <FiniteState+0xe0>
     1fa:	81 e2       	ldi	r24, 0x21	; 33
     1fc:	92 e0       	ldi	r25, 0x02	; 2
     1fe:	0e 94 2a 0a 	call	0x1454	; 0x1454 <printString>
     202:	82 e0       	ldi	r24, 0x02	; 2
     204:	80 93 b0 21 	sts	0x21B0, r24	; 0x8021b0 <StateRobo>
     208:	12 c0       	rjmp	.+36     	; 0x22e <FiniteState+0x104>
     20a:	82 30       	cpi	r24, 0x02	; 2
     20c:	41 f4       	brne	.+16     	; 0x21e <FiniteState+0xf4>
     20e:	84 e0       	ldi	r24, 0x04	; 4
     210:	80 93 b0 21 	sts	0x21B0, r24	; 0x8021b0 <StateRobo>
     214:	87 e2       	ldi	r24, 0x27	; 39
     216:	92 e0       	ldi	r25, 0x02	; 2
     218:	0e 94 2a 0a 	call	0x1454	; 0x1454 <printString>
     21c:	08 c0       	rjmp	.+16     	; 0x22e <FiniteState+0x104>
     21e:	81 30       	cpi	r24, 0x01	; 1
     220:	31 f4       	brne	.+12     	; 0x22e <FiniteState+0x104>
     222:	8f e2       	ldi	r24, 0x2F	; 47
     224:	92 e0       	ldi	r25, 0x02	; 2
     226:	0e 94 2a 0a 	call	0x1454	; 0x1454 <printString>
     22a:	c0 93 b0 21 	sts	0x21B0, r28	; 0x8021b0 <StateRobo>
     22e:	83 e0       	ldi	r24, 0x03	; 3
     230:	12 c0       	rjmp	.+36     	; 0x256 <FiniteState+0x12c>
     232:	60 91 44 03 	lds	r22, 0x0344	; 0x800344 <CurrentPos+0x2>
     236:	70 91 45 03 	lds	r23, 0x0345	; 0x800345 <CurrentPos+0x3>
     23a:	80 91 42 03 	lds	r24, 0x0342	; 0x800342 <CurrentPos>
     23e:	90 91 43 03 	lds	r25, 0x0343	; 0x800343 <CurrentPos+0x1>
     242:	0e 94 ff 08 	call	0x11fe	; 0x11fe <BackToHome>
     246:	89 2b       	or	r24, r25
     248:	11 f4       	brne	.+4      	; 0x24e <FiniteState+0x124>
     24a:	82 e0       	ldi	r24, 0x02	; 2
     24c:	01 c0       	rjmp	.+2      	; 0x250 <FiniteState+0x126>
     24e:	85 e0       	ldi	r24, 0x05	; 5
     250:	80 93 b0 21 	sts	0x21B0, r24	; 0x8021b0 <StateRobo>
     254:	84 e0       	ldi	r24, 0x04	; 4
     256:	80 93 46 03 	sts	0x0346, r24	; 0x800346 <CurStateRobo>
     25a:	cf 91       	pop	r28
     25c:	08 95       	ret

0000025e <analogWrite>:
     25e:	90 91 01 01 	lds	r25, 0x0101	; 0x800101 <__TEXT_REGION_LENGTH__+0x700101>
     262:	90 91 01 01 	lds	r25, 0x0101	; 0x800101 <__TEXT_REGION_LENGTH__+0x700101>
     266:	98 2b       	or	r25, r24
     268:	90 93 01 01 	sts	0x0101, r25	; 0x800101 <__TEXT_REGION_LENGTH__+0x700101>
     26c:	80 31       	cpi	r24, 0x10	; 16
     26e:	61 f0       	breq	.+24     	; 0x288 <analogWrite+0x2a>
     270:	81 31       	cpi	r24, 0x11	; 17
     272:	99 f0       	breq	.+38     	; 0x29a <analogWrite+0x3c>
     274:	88 30       	cpi	r24, 0x08	; 8
     276:	d1 f4       	brne	.+52     	; 0x2ac <analogWrite+0x4e>
     278:	70 e0       	ldi	r23, 0x00	; 0
     27a:	70 93 a9 00 	sts	0x00A9, r23	; 0x8000a9 <__TEXT_REGION_LENGTH__+0x7000a9>
     27e:	60 93 a8 00 	sts	0x00A8, r22	; 0x8000a8 <__TEXT_REGION_LENGTH__+0x7000a8>
     282:	84 e3       	ldi	r24, 0x34	; 52
     284:	92 e0       	ldi	r25, 0x02	; 2
     286:	07 c0       	rjmp	.+14     	; 0x296 <analogWrite+0x38>
     288:	70 e0       	ldi	r23, 0x00	; 0
     28a:	70 93 ab 00 	sts	0x00AB, r23	; 0x8000ab <__TEXT_REGION_LENGTH__+0x7000ab>
     28e:	60 93 aa 00 	sts	0x00AA, r22	; 0x8000aa <__TEXT_REGION_LENGTH__+0x7000aa>
     292:	8a e3       	ldi	r24, 0x3A	; 58
     294:	92 e0       	ldi	r25, 0x02	; 2
     296:	0c 94 2a 0a 	jmp	0x1454	; 0x1454 <printString>
     29a:	70 e0       	ldi	r23, 0x00	; 0
     29c:	70 93 a9 00 	sts	0x00A9, r23	; 0x8000a9 <__TEXT_REGION_LENGTH__+0x7000a9>
     2a0:	60 93 a8 00 	sts	0x00A8, r22	; 0x8000a8 <__TEXT_REGION_LENGTH__+0x7000a8>
     2a4:	70 93 ab 00 	sts	0x00AB, r23	; 0x8000ab <__TEXT_REGION_LENGTH__+0x7000ab>
     2a8:	60 93 aa 00 	sts	0x00AA, r22	; 0x8000aa <__TEXT_REGION_LENGTH__+0x7000aa>
     2ac:	08 95       	ret

000002ae <pwm_init>:
     2ae:	e0 ea       	ldi	r30, 0xA0	; 160
     2b0:	f0 e0       	ldi	r31, 0x00	; 0
     2b2:	80 81       	ld	r24, Z
     2b4:	83 6a       	ori	r24, 0xA3	; 163
     2b6:	80 83       	st	Z, r24
     2b8:	e1 ea       	ldi	r30, 0xA1	; 161
     2ba:	f0 e0       	ldi	r31, 0x00	; 0
     2bc:	80 81       	ld	r24, Z
     2be:	83 60       	ori	r24, 0x03	; 3
     2c0:	80 83       	st	Z, r24
     2c2:	08 95       	ret

000002c4 <analogRead>:
     2c4:	90 91 7c 00 	lds	r25, 0x007C	; 0x80007c <__TEXT_REGION_LENGTH__+0x70007c>
     2c8:	90 7f       	andi	r25, 0xF0	; 240
     2ca:	8f 70       	andi	r24, 0x0F	; 15
     2cc:	89 2b       	or	r24, r25
     2ce:	80 93 7c 00 	sts	0x007C, r24	; 0x80007c <__TEXT_REGION_LENGTH__+0x70007c>
     2d2:	80 91 7a 00 	lds	r24, 0x007A	; 0x80007a <__TEXT_REGION_LENGTH__+0x70007a>
     2d6:	80 64       	ori	r24, 0x40	; 64
     2d8:	80 93 7a 00 	sts	0x007A, r24	; 0x80007a <__TEXT_REGION_LENGTH__+0x70007a>
     2dc:	80 91 7a 00 	lds	r24, 0x007A	; 0x80007a <__TEXT_REGION_LENGTH__+0x70007a>
     2e0:	86 fd       	sbrc	r24, 6
     2e2:	fc cf       	rjmp	.-8      	; 0x2dc <analogRead+0x18>
     2e4:	80 91 78 00 	lds	r24, 0x0078	; 0x800078 <__TEXT_REGION_LENGTH__+0x700078>
     2e8:	90 91 79 00 	lds	r25, 0x0079	; 0x800079 <__TEXT_REGION_LENGTH__+0x700079>
     2ec:	08 95       	ret

000002ee <adc_init>:
     2ee:	ec e7       	ldi	r30, 0x7C	; 124
     2f0:	f0 e0       	ldi	r31, 0x00	; 0
     2f2:	80 81       	ld	r24, Z
     2f4:	80 64       	ori	r24, 0x40	; 64
     2f6:	80 83       	st	Z, r24
     2f8:	ea e7       	ldi	r30, 0x7A	; 122
     2fa:	f0 e0       	ldi	r31, 0x00	; 0
     2fc:	80 81       	ld	r24, Z
     2fe:	84 68       	ori	r24, 0x84	; 132
     300:	80 83       	st	Z, r24
     302:	08 95       	ret

00000304 <mapping>:
     304:	96 95       	lsr	r25
     306:	87 95       	ror	r24
     308:	96 95       	lsr	r25
     30a:	87 95       	ror	r24
     30c:	08 95       	ret

0000030e <CheckObs>:
     30e:	af 92       	push	r10
     310:	bf 92       	push	r11
     312:	cf 92       	push	r12
     314:	df 92       	push	r13
     316:	ef 92       	push	r14
     318:	ff 92       	push	r15
     31a:	0f 93       	push	r16
     31c:	1f 93       	push	r17
     31e:	cf 93       	push	r28
     320:	df 93       	push	r29
     322:	6c 01       	movw	r12, r24
     324:	2f ef       	ldi	r18, 0xFF	; 255
     326:	c2 1a       	sub	r12, r18
     328:	d2 0a       	sbc	r13, r18
     32a:	5b 01       	movw	r10, r22
     32c:	2f ef       	ldi	r18, 0xFF	; 255
     32e:	a2 1a       	sub	r10, r18
     330:	b2 0a       	sbc	r11, r18
     332:	25 e2       	ldi	r18, 0x25	; 37
     334:	c2 16       	cp	r12, r18
     336:	d1 04       	cpc	r13, r1
     338:	08 f0       	brcs	.+2      	; 0x33c <CheckObs+0x2e>
     33a:	a9 c2       	rjmp	.+1362   	; 0x88e <__LOCK_REGION_LENGTH__+0x48e>
     33c:	25 e2       	ldi	r18, 0x25	; 37
     33e:	a2 16       	cp	r10, r18
     340:	b1 04       	cpc	r11, r1
     342:	08 f0       	brcs	.+2      	; 0x346 <CheckObs+0x38>
     344:	a4 c2       	rjmp	.+1352   	; 0x88e <__LOCK_REGION_LENGTH__+0x48e>
     346:	f0 90 af 21 	lds	r15, 0x21AF	; 0x8021af <isExecute>
     34a:	21 e0       	ldi	r18, 0x01	; 1
     34c:	f2 12       	cpse	r15, r18
     34e:	a6 c2       	rjmp	.+1356   	; 0x89c <__LOCK_REGION_LENGTH__+0x49c>
     350:	8b 01       	movw	r16, r22
     352:	ec 01       	movw	r28, r24
     354:	80 e4       	ldi	r24, 0x40	; 64
     356:	92 e0       	ldi	r25, 0x02	; 2
     358:	0e 94 2a 0a 	call	0x1454	; 0x1454 <printString>
     35c:	80 91 b2 21 	lds	r24, 0x21B2	; 0x8021b2 <headdirect>
     360:	81 11       	cpse	r24, r1
     362:	a4 c0       	rjmp	.+328    	; 0x4ac <__LOCK_REGION_LENGTH__+0xac>
     364:	8d e4       	ldi	r24, 0x4D	; 77
     366:	92 e0       	ldi	r25, 0x02	; 2
     368:	0e 94 2a 0a 	call	0x1454	; 0x1454 <printString>
     36c:	83 e0       	ldi	r24, 0x03	; 3
     36e:	0e 94 68 09 	call	0x12d0	; 0x12d0 <readObs>
     372:	e8 2e       	mov	r14, r24
     374:	83 e0       	ldi	r24, 0x03	; 3
     376:	0e 94 74 09 	call	0x12e8	; 0x12e8 <PINtoInt>
     37a:	ae 01       	movw	r20, r28
     37c:	41 50       	subi	r20, 0x01	; 1
     37e:	51 09       	sbc	r21, r1
     380:	96 e0       	ldi	r25, 0x06	; 6
     382:	90 9f       	mul	r25, r16
     384:	f0 01       	movw	r30, r0
     386:	91 9f       	mul	r25, r17
     388:	f0 0d       	add	r31, r0
     38a:	11 24       	eor	r1, r1
     38c:	98 ed       	ldi	r25, 0xD8	; 216
     38e:	94 9f       	mul	r25, r20
     390:	90 01       	movw	r18, r0
     392:	95 9f       	mul	r25, r21
     394:	30 0d       	add	r19, r0
     396:	11 24       	eor	r1, r1
     398:	e2 0f       	add	r30, r18
     39a:	f3 1f       	adc	r31, r19
     39c:	e5 5b       	subi	r30, 0xB5	; 181
     39e:	fc 4f       	sbci	r31, 0xFC	; 252
     3a0:	94 81       	ldd	r25, Z+4	; 0x04
     3a2:	91 11       	cpse	r25, r1
     3a4:	0d c0       	rjmp	.+26     	; 0x3c0 <CheckObs+0xb2>
     3a6:	e8 12       	cpse	r14, r24
     3a8:	0b c0       	rjmp	.+22     	; 0x3c0 <CheckObs+0xb2>
     3aa:	f4 82       	std	Z+4, r15	; 0x04
     3ac:	82 e0       	ldi	r24, 0x02	; 2
     3ae:	80 93 49 03 	sts	0x0349, r24	; 0x800349 <DirToGo>
     3b2:	83 e0       	ldi	r24, 0x03	; 3
     3b4:	80 93 4a 03 	sts	0x034A, r24	; 0x80034a <DirToGo+0x1>
     3b8:	86 e5       	ldi	r24, 0x56	; 86
     3ba:	92 e0       	ldi	r25, 0x02	; 2
     3bc:	0e 94 2a 0a 	call	0x1454	; 0x1454 <printString>
     3c0:	81 e0       	ldi	r24, 0x01	; 1
     3c2:	0e 94 68 09 	call	0x12d0	; 0x12d0 <readObs>
     3c6:	e8 2e       	mov	r14, r24
     3c8:	81 e0       	ldi	r24, 0x01	; 1
     3ca:	0e 94 74 09 	call	0x12e8	; 0x12e8 <PINtoInt>
     3ce:	96 e0       	ldi	r25, 0x06	; 6
     3d0:	9a 9d       	mul	r25, r10
     3d2:	f0 01       	movw	r30, r0
     3d4:	9b 9d       	mul	r25, r11
     3d6:	f0 0d       	add	r31, r0
     3d8:	11 24       	eor	r1, r1
     3da:	98 ed       	ldi	r25, 0xD8	; 216
     3dc:	9c 9f       	mul	r25, r28
     3de:	90 01       	movw	r18, r0
     3e0:	9d 9f       	mul	r25, r29
     3e2:	30 0d       	add	r19, r0
     3e4:	11 24       	eor	r1, r1
     3e6:	e2 0f       	add	r30, r18
     3e8:	f3 1f       	adc	r31, r19
     3ea:	e5 5b       	subi	r30, 0xB5	; 181
     3ec:	fc 4f       	sbci	r31, 0xFC	; 252
     3ee:	94 81       	ldd	r25, Z+4	; 0x04
     3f0:	91 11       	cpse	r25, r1
     3f2:	0d c0       	rjmp	.+26     	; 0x40e <__LOCK_REGION_LENGTH__+0xe>
     3f4:	e8 12       	cpse	r14, r24
     3f6:	0b c0       	rjmp	.+22     	; 0x40e <__LOCK_REGION_LENGTH__+0xe>
     3f8:	81 e0       	ldi	r24, 0x01	; 1
     3fa:	84 83       	std	Z+4, r24	; 0x04
     3fc:	80 93 49 03 	sts	0x0349, r24	; 0x800349 <DirToGo>
     400:	82 e0       	ldi	r24, 0x02	; 2
     402:	80 93 4a 03 	sts	0x034A, r24	; 0x80034a <DirToGo+0x1>
     406:	8d e5       	ldi	r24, 0x5D	; 93
     408:	92 e0       	ldi	r25, 0x02	; 2
     40a:	0e 94 2a 0a 	call	0x1454	; 0x1454 <printString>
     40e:	82 e0       	ldi	r24, 0x02	; 2
     410:	0e 94 68 09 	call	0x12d0	; 0x12d0 <readObs>
     414:	e8 2e       	mov	r14, r24
     416:	82 e0       	ldi	r24, 0x02	; 2
     418:	0e 94 74 09 	call	0x12e8	; 0x12e8 <PINtoInt>
     41c:	98 01       	movw	r18, r16
     41e:	21 50       	subi	r18, 0x01	; 1
     420:	31 09       	sbc	r19, r1
     422:	96 e0       	ldi	r25, 0x06	; 6
     424:	92 9f       	mul	r25, r18
     426:	f0 01       	movw	r30, r0
     428:	93 9f       	mul	r25, r19
     42a:	f0 0d       	add	r31, r0
     42c:	11 24       	eor	r1, r1
     42e:	98 ed       	ldi	r25, 0xD8	; 216
     430:	9c 9f       	mul	r25, r28
     432:	90 01       	movw	r18, r0
     434:	9d 9f       	mul	r25, r29
     436:	30 0d       	add	r19, r0
     438:	11 24       	eor	r1, r1
     43a:	e2 0f       	add	r30, r18
     43c:	f3 1f       	adc	r31, r19
     43e:	e5 5b       	subi	r30, 0xB5	; 181
     440:	fc 4f       	sbci	r31, 0xFC	; 252
     442:	94 81       	ldd	r25, Z+4	; 0x04
     444:	91 11       	cpse	r25, r1
     446:	0d c0       	rjmp	.+26     	; 0x462 <__LOCK_REGION_LENGTH__+0x62>
     448:	e8 12       	cpse	r14, r24
     44a:	0b c0       	rjmp	.+22     	; 0x462 <__LOCK_REGION_LENGTH__+0x62>
     44c:	81 e0       	ldi	r24, 0x01	; 1
     44e:	84 83       	std	Z+4, r24	; 0x04
     450:	93 e0       	ldi	r25, 0x03	; 3
     452:	90 93 49 03 	sts	0x0349, r25	; 0x800349 <DirToGo>
     456:	80 93 4a 03 	sts	0x034A, r24	; 0x80034a <DirToGo+0x1>
     45a:	81 e6       	ldi	r24, 0x61	; 97
     45c:	92 e0       	ldi	r25, 0x02	; 2
     45e:	0e 94 2a 0a 	call	0x1454	; 0x1454 <printString>
     462:	80 e0       	ldi	r24, 0x00	; 0
     464:	0e 94 68 09 	call	0x12d0	; 0x12d0 <readObs>
     468:	c8 2f       	mov	r28, r24
     46a:	80 e0       	ldi	r24, 0x00	; 0
     46c:	0e 94 74 09 	call	0x12e8	; 0x12e8 <PINtoInt>
     470:	96 e0       	ldi	r25, 0x06	; 6
     472:	90 9f       	mul	r25, r16
     474:	f0 01       	movw	r30, r0
     476:	91 9f       	mul	r25, r17
     478:	f0 0d       	add	r31, r0
     47a:	11 24       	eor	r1, r1
     47c:	98 ed       	ldi	r25, 0xD8	; 216
     47e:	9c 9d       	mul	r25, r12
     480:	90 01       	movw	r18, r0
     482:	9d 9d       	mul	r25, r13
     484:	30 0d       	add	r19, r0
     486:	11 24       	eor	r1, r1
     488:	e2 0f       	add	r30, r18
     48a:	f3 1f       	adc	r31, r19
     48c:	e5 5b       	subi	r30, 0xB5	; 181
     48e:	fc 4f       	sbci	r31, 0xFC	; 252
     490:	94 81       	ldd	r25, Z+4	; 0x04
     492:	91 11       	cpse	r25, r1
     494:	f9 c1       	rjmp	.+1010   	; 0x888 <__LOCK_REGION_LENGTH__+0x488>
     496:	c8 13       	cpse	r28, r24
     498:	f7 c1       	rjmp	.+1006   	; 0x888 <__LOCK_REGION_LENGTH__+0x488>
     49a:	81 e0       	ldi	r24, 0x01	; 1
     49c:	84 83       	std	Z+4, r24	; 0x04
     49e:	10 92 49 03 	sts	0x0349, r1	; 0x800349 <DirToGo>
     4a2:	10 92 4a 03 	sts	0x034A, r1	; 0x80034a <DirToGo+0x1>
     4a6:	85 e6       	ldi	r24, 0x65	; 101
     4a8:	92 e0       	ldi	r25, 0x02	; 2
     4aa:	a5 c0       	rjmp	.+330    	; 0x5f6 <__LOCK_REGION_LENGTH__+0x1f6>
     4ac:	80 91 b3 21 	lds	r24, 0x21B3	; 0x8021b3 <headdirect+0x1>
     4b0:	81 11       	cpse	r24, r1
     4b2:	a4 c0       	rjmp	.+328    	; 0x5fc <__LOCK_REGION_LENGTH__+0x1fc>
     4b4:	8c e6       	ldi	r24, 0x6C	; 108
     4b6:	92 e0       	ldi	r25, 0x02	; 2
     4b8:	0e 94 2a 0a 	call	0x1454	; 0x1454 <printString>
     4bc:	83 e0       	ldi	r24, 0x03	; 3
     4be:	0e 94 68 09 	call	0x12d0	; 0x12d0 <readObs>
     4c2:	e8 2e       	mov	r14, r24
     4c4:	83 e0       	ldi	r24, 0x03	; 3
     4c6:	0e 94 74 09 	call	0x12e8	; 0x12e8 <PINtoInt>
     4ca:	98 01       	movw	r18, r16
     4cc:	21 50       	subi	r18, 0x01	; 1
     4ce:	31 09       	sbc	r19, r1
     4d0:	96 e0       	ldi	r25, 0x06	; 6
     4d2:	92 9f       	mul	r25, r18
     4d4:	f0 01       	movw	r30, r0
     4d6:	93 9f       	mul	r25, r19
     4d8:	f0 0d       	add	r31, r0
     4da:	11 24       	eor	r1, r1
     4dc:	98 ed       	ldi	r25, 0xD8	; 216
     4de:	9c 9f       	mul	r25, r28
     4e0:	90 01       	movw	r18, r0
     4e2:	9d 9f       	mul	r25, r29
     4e4:	30 0d       	add	r19, r0
     4e6:	11 24       	eor	r1, r1
     4e8:	e2 0f       	add	r30, r18
     4ea:	f3 1f       	adc	r31, r19
     4ec:	e5 5b       	subi	r30, 0xB5	; 181
     4ee:	fc 4f       	sbci	r31, 0xFC	; 252
     4f0:	94 81       	ldd	r25, Z+4	; 0x04
     4f2:	91 11       	cpse	r25, r1
     4f4:	0c c0       	rjmp	.+24     	; 0x50e <__LOCK_REGION_LENGTH__+0x10e>
     4f6:	e8 12       	cpse	r14, r24
     4f8:	0a c0       	rjmp	.+20     	; 0x50e <__LOCK_REGION_LENGTH__+0x10e>
     4fa:	f4 82       	std	Z+4, r15	; 0x04
     4fc:	83 e0       	ldi	r24, 0x03	; 3
     4fe:	80 93 49 03 	sts	0x0349, r24	; 0x800349 <DirToGo>
     502:	80 93 4a 03 	sts	0x034A, r24	; 0x80034a <DirToGo+0x1>
     506:	86 e5       	ldi	r24, 0x56	; 86
     508:	92 e0       	ldi	r25, 0x02	; 2
     50a:	0e 94 2a 0a 	call	0x1454	; 0x1454 <printString>
     50e:	81 e0       	ldi	r24, 0x01	; 1
     510:	0e 94 68 09 	call	0x12d0	; 0x12d0 <readObs>
     514:	e8 2e       	mov	r14, r24
     516:	81 e0       	ldi	r24, 0x01	; 1
     518:	0e 94 74 09 	call	0x12e8	; 0x12e8 <PINtoInt>
     51c:	ae 01       	movw	r20, r28
     51e:	41 50       	subi	r20, 0x01	; 1
     520:	51 09       	sbc	r21, r1
     522:	96 e0       	ldi	r25, 0x06	; 6
     524:	90 9f       	mul	r25, r16
     526:	f0 01       	movw	r30, r0
     528:	91 9f       	mul	r25, r17
     52a:	f0 0d       	add	r31, r0
     52c:	11 24       	eor	r1, r1
     52e:	98 ed       	ldi	r25, 0xD8	; 216
     530:	94 9f       	mul	r25, r20
     532:	90 01       	movw	r18, r0
     534:	95 9f       	mul	r25, r21
     536:	30 0d       	add	r19, r0
     538:	11 24       	eor	r1, r1
     53a:	e2 0f       	add	r30, r18
     53c:	f3 1f       	adc	r31, r19
     53e:	e5 5b       	subi	r30, 0xB5	; 181
     540:	fc 4f       	sbci	r31, 0xFC	; 252
     542:	94 81       	ldd	r25, Z+4	; 0x04
     544:	91 11       	cpse	r25, r1
     546:	0d c0       	rjmp	.+26     	; 0x562 <__LOCK_REGION_LENGTH__+0x162>
     548:	e8 12       	cpse	r14, r24
     54a:	0b c0       	rjmp	.+22     	; 0x562 <__LOCK_REGION_LENGTH__+0x162>
     54c:	81 e0       	ldi	r24, 0x01	; 1
     54e:	84 83       	std	Z+4, r24	; 0x04
     550:	82 e0       	ldi	r24, 0x02	; 2
     552:	80 93 49 03 	sts	0x0349, r24	; 0x800349 <DirToGo>
     556:	80 93 4a 03 	sts	0x034A, r24	; 0x80034a <DirToGo+0x1>
     55a:	8d e5       	ldi	r24, 0x5D	; 93
     55c:	92 e0       	ldi	r25, 0x02	; 2
     55e:	0e 94 2a 0a 	call	0x1454	; 0x1454 <printString>
     562:	82 e0       	ldi	r24, 0x02	; 2
     564:	0e 94 68 09 	call	0x12d0	; 0x12d0 <readObs>
     568:	e8 2e       	mov	r14, r24
     56a:	82 e0       	ldi	r24, 0x02	; 2
     56c:	0e 94 74 09 	call	0x12e8	; 0x12e8 <PINtoInt>
     570:	96 e0       	ldi	r25, 0x06	; 6
     572:	90 9f       	mul	r25, r16
     574:	f0 01       	movw	r30, r0
     576:	91 9f       	mul	r25, r17
     578:	f0 0d       	add	r31, r0
     57a:	11 24       	eor	r1, r1
     57c:	98 ed       	ldi	r25, 0xD8	; 216
     57e:	9c 9d       	mul	r25, r12
     580:	90 01       	movw	r18, r0
     582:	9d 9d       	mul	r25, r13
     584:	30 0d       	add	r19, r0
     586:	11 24       	eor	r1, r1
     588:	e2 0f       	add	r30, r18
     58a:	f3 1f       	adc	r31, r19
     58c:	e5 5b       	subi	r30, 0xB5	; 181
     58e:	fc 4f       	sbci	r31, 0xFC	; 252
     590:	94 81       	ldd	r25, Z+4	; 0x04
     592:	91 11       	cpse	r25, r1
     594:	0c c0       	rjmp	.+24     	; 0x5ae <__LOCK_REGION_LENGTH__+0x1ae>
     596:	e8 12       	cpse	r14, r24
     598:	0a c0       	rjmp	.+20     	; 0x5ae <__LOCK_REGION_LENGTH__+0x1ae>
     59a:	81 e0       	ldi	r24, 0x01	; 1
     59c:	84 83       	std	Z+4, r24	; 0x04
     59e:	10 92 49 03 	sts	0x0349, r1	; 0x800349 <DirToGo>
     5a2:	80 93 4a 03 	sts	0x034A, r24	; 0x80034a <DirToGo+0x1>
     5a6:	81 e6       	ldi	r24, 0x61	; 97
     5a8:	92 e0       	ldi	r25, 0x02	; 2
     5aa:	0e 94 2a 0a 	call	0x1454	; 0x1454 <printString>
     5ae:	80 e0       	ldi	r24, 0x00	; 0
     5b0:	0e 94 68 09 	call	0x12d0	; 0x12d0 <readObs>
     5b4:	18 2f       	mov	r17, r24
     5b6:	80 e0       	ldi	r24, 0x00	; 0
     5b8:	0e 94 74 09 	call	0x12e8	; 0x12e8 <PINtoInt>
     5bc:	96 e0       	ldi	r25, 0x06	; 6
     5be:	9a 9d       	mul	r25, r10
     5c0:	f0 01       	movw	r30, r0
     5c2:	9b 9d       	mul	r25, r11
     5c4:	f0 0d       	add	r31, r0
     5c6:	11 24       	eor	r1, r1
     5c8:	98 ed       	ldi	r25, 0xD8	; 216
     5ca:	9c 9f       	mul	r25, r28
     5cc:	90 01       	movw	r18, r0
     5ce:	9d 9f       	mul	r25, r29
     5d0:	30 0d       	add	r19, r0
     5d2:	11 24       	eor	r1, r1
     5d4:	e2 0f       	add	r30, r18
     5d6:	f3 1f       	adc	r31, r19
     5d8:	e5 5b       	subi	r30, 0xB5	; 181
     5da:	fc 4f       	sbci	r31, 0xFC	; 252
     5dc:	94 81       	ldd	r25, Z+4	; 0x04
     5de:	91 11       	cpse	r25, r1
     5e0:	53 c1       	rjmp	.+678    	; 0x888 <__LOCK_REGION_LENGTH__+0x488>
     5e2:	18 13       	cpse	r17, r24
     5e4:	51 c1       	rjmp	.+674    	; 0x888 <__LOCK_REGION_LENGTH__+0x488>
     5e6:	81 e0       	ldi	r24, 0x01	; 1
     5e8:	84 83       	std	Z+4, r24	; 0x04
     5ea:	80 93 49 03 	sts	0x0349, r24	; 0x800349 <DirToGo>
     5ee:	10 92 4a 03 	sts	0x034A, r1	; 0x80034a <DirToGo+0x1>
     5f2:	85 e7       	ldi	r24, 0x75	; 117
     5f4:	92 e0       	ldi	r25, 0x02	; 2
     5f6:	0e 94 2a 0a 	call	0x1454	; 0x1454 <printString>
     5fa:	46 c1       	rjmp	.+652    	; 0x888 <__LOCK_REGION_LENGTH__+0x488>
     5fc:	80 91 b4 21 	lds	r24, 0x21B4	; 0x8021b4 <headdirect+0x2>
     600:	81 11       	cpse	r24, r1
     602:	9c c0       	rjmp	.+312    	; 0x73c <__LOCK_REGION_LENGTH__+0x33c>
     604:	8c e7       	ldi	r24, 0x7C	; 124
     606:	92 e0       	ldi	r25, 0x02	; 2
     608:	0e 94 2a 0a 	call	0x1454	; 0x1454 <printString>
     60c:	83 e0       	ldi	r24, 0x03	; 3
     60e:	0e 94 68 09 	call	0x12d0	; 0x12d0 <readObs>
     612:	e8 2e       	mov	r14, r24
     614:	83 e0       	ldi	r24, 0x03	; 3
     616:	0e 94 74 09 	call	0x12e8	; 0x12e8 <PINtoInt>
     61a:	96 e0       	ldi	r25, 0x06	; 6
     61c:	90 9f       	mul	r25, r16
     61e:	f0 01       	movw	r30, r0
     620:	91 9f       	mul	r25, r17
     622:	f0 0d       	add	r31, r0
     624:	11 24       	eor	r1, r1
     626:	98 ed       	ldi	r25, 0xD8	; 216
     628:	9c 9d       	mul	r25, r12
     62a:	90 01       	movw	r18, r0
     62c:	9d 9d       	mul	r25, r13
     62e:	30 0d       	add	r19, r0
     630:	11 24       	eor	r1, r1
     632:	e2 0f       	add	r30, r18
     634:	f3 1f       	adc	r31, r19
     636:	e5 5b       	subi	r30, 0xB5	; 181
     638:	fc 4f       	sbci	r31, 0xFC	; 252
     63a:	94 81       	ldd	r25, Z+4	; 0x04
     63c:	91 11       	cpse	r25, r1
     63e:	0c c0       	rjmp	.+24     	; 0x658 <__LOCK_REGION_LENGTH__+0x258>
     640:	e8 12       	cpse	r14, r24
     642:	0a c0       	rjmp	.+20     	; 0x658 <__LOCK_REGION_LENGTH__+0x258>
     644:	f4 82       	std	Z+4, r15	; 0x04
     646:	10 92 49 03 	sts	0x0349, r1	; 0x800349 <DirToGo>
     64a:	83 e0       	ldi	r24, 0x03	; 3
     64c:	80 93 4a 03 	sts	0x034A, r24	; 0x80034a <DirToGo+0x1>
     650:	86 e5       	ldi	r24, 0x56	; 86
     652:	92 e0       	ldi	r25, 0x02	; 2
     654:	0e 94 2a 0a 	call	0x1454	; 0x1454 <printString>
     658:	81 e0       	ldi	r24, 0x01	; 1
     65a:	0e 94 68 09 	call	0x12d0	; 0x12d0 <readObs>
     65e:	e8 2e       	mov	r14, r24
     660:	81 e0       	ldi	r24, 0x01	; 1
     662:	0e 94 74 09 	call	0x12e8	; 0x12e8 <PINtoInt>
     666:	98 01       	movw	r18, r16
     668:	21 50       	subi	r18, 0x01	; 1
     66a:	31 09       	sbc	r19, r1
     66c:	96 e0       	ldi	r25, 0x06	; 6
     66e:	92 9f       	mul	r25, r18
     670:	f0 01       	movw	r30, r0
     672:	93 9f       	mul	r25, r19
     674:	f0 0d       	add	r31, r0
     676:	11 24       	eor	r1, r1
     678:	98 ed       	ldi	r25, 0xD8	; 216
     67a:	9c 9f       	mul	r25, r28
     67c:	90 01       	movw	r18, r0
     67e:	9d 9f       	mul	r25, r29
     680:	30 0d       	add	r19, r0
     682:	11 24       	eor	r1, r1
     684:	e2 0f       	add	r30, r18
     686:	f3 1f       	adc	r31, r19
     688:	e5 5b       	subi	r30, 0xB5	; 181
     68a:	fc 4f       	sbci	r31, 0xFC	; 252
     68c:	94 81       	ldd	r25, Z+4	; 0x04
     68e:	91 11       	cpse	r25, r1
     690:	0e c0       	rjmp	.+28     	; 0x6ae <__LOCK_REGION_LENGTH__+0x2ae>
     692:	e8 12       	cpse	r14, r24
     694:	0c c0       	rjmp	.+24     	; 0x6ae <__LOCK_REGION_LENGTH__+0x2ae>
     696:	81 e0       	ldi	r24, 0x01	; 1
     698:	84 83       	std	Z+4, r24	; 0x04
     69a:	83 e0       	ldi	r24, 0x03	; 3
     69c:	80 93 49 03 	sts	0x0349, r24	; 0x800349 <DirToGo>
     6a0:	82 e0       	ldi	r24, 0x02	; 2
     6a2:	80 93 4a 03 	sts	0x034A, r24	; 0x80034a <DirToGo+0x1>
     6a6:	8d e5       	ldi	r24, 0x5D	; 93
     6a8:	92 e0       	ldi	r25, 0x02	; 2
     6aa:	0e 94 2a 0a 	call	0x1454	; 0x1454 <printString>
     6ae:	82 e0       	ldi	r24, 0x02	; 2
     6b0:	0e 94 68 09 	call	0x12d0	; 0x12d0 <readObs>
     6b4:	e8 2e       	mov	r14, r24
     6b6:	82 e0       	ldi	r24, 0x02	; 2
     6b8:	0e 94 74 09 	call	0x12e8	; 0x12e8 <PINtoInt>
     6bc:	96 e0       	ldi	r25, 0x06	; 6
     6be:	9a 9d       	mul	r25, r10
     6c0:	f0 01       	movw	r30, r0
     6c2:	9b 9d       	mul	r25, r11
     6c4:	f0 0d       	add	r31, r0
     6c6:	11 24       	eor	r1, r1
     6c8:	98 ed       	ldi	r25, 0xD8	; 216
     6ca:	9c 9f       	mul	r25, r28
     6cc:	90 01       	movw	r18, r0
     6ce:	9d 9f       	mul	r25, r29
     6d0:	30 0d       	add	r19, r0
     6d2:	11 24       	eor	r1, r1
     6d4:	e2 0f       	add	r30, r18
     6d6:	f3 1f       	adc	r31, r19
     6d8:	e5 5b       	subi	r30, 0xB5	; 181
     6da:	fc 4f       	sbci	r31, 0xFC	; 252
     6dc:	94 81       	ldd	r25, Z+4	; 0x04
     6de:	91 11       	cpse	r25, r1
     6e0:	0c c0       	rjmp	.+24     	; 0x6fa <__LOCK_REGION_LENGTH__+0x2fa>
     6e2:	e8 12       	cpse	r14, r24
     6e4:	0a c0       	rjmp	.+20     	; 0x6fa <__LOCK_REGION_LENGTH__+0x2fa>
     6e6:	81 e0       	ldi	r24, 0x01	; 1
     6e8:	84 83       	std	Z+4, r24	; 0x04
     6ea:	80 93 49 03 	sts	0x0349, r24	; 0x800349 <DirToGo>
     6ee:	80 93 4a 03 	sts	0x034A, r24	; 0x80034a <DirToGo+0x1>
     6f2:	81 e6       	ldi	r24, 0x61	; 97
     6f4:	92 e0       	ldi	r25, 0x02	; 2
     6f6:	0e 94 2a 0a 	call	0x1454	; 0x1454 <printString>
     6fa:	80 e0       	ldi	r24, 0x00	; 0
     6fc:	0e 94 68 09 	call	0x12d0	; 0x12d0 <readObs>
     700:	e8 2e       	mov	r14, r24
     702:	80 e0       	ldi	r24, 0x00	; 0
     704:	0e 94 74 09 	call	0x12e8	; 0x12e8 <PINtoInt>
     708:	21 97       	sbiw	r28, 0x01	; 1
     70a:	96 e0       	ldi	r25, 0x06	; 6
     70c:	90 9f       	mul	r25, r16
     70e:	f0 01       	movw	r30, r0
     710:	91 9f       	mul	r25, r17
     712:	f0 0d       	add	r31, r0
     714:	11 24       	eor	r1, r1
     716:	98 ed       	ldi	r25, 0xD8	; 216
     718:	9c 9f       	mul	r25, r28
     71a:	90 01       	movw	r18, r0
     71c:	9d 9f       	mul	r25, r29
     71e:	30 0d       	add	r19, r0
     720:	11 24       	eor	r1, r1
     722:	e2 0f       	add	r30, r18
     724:	f3 1f       	adc	r31, r19
     726:	e5 5b       	subi	r30, 0xB5	; 181
     728:	fc 4f       	sbci	r31, 0xFC	; 252
     72a:	94 81       	ldd	r25, Z+4	; 0x04
     72c:	91 11       	cpse	r25, r1
     72e:	ac c0       	rjmp	.+344    	; 0x888 <__LOCK_REGION_LENGTH__+0x488>
     730:	e8 12       	cpse	r14, r24
     732:	aa c0       	rjmp	.+340    	; 0x888 <__LOCK_REGION_LENGTH__+0x488>
     734:	81 e0       	ldi	r24, 0x01	; 1
     736:	84 83       	std	Z+4, r24	; 0x04
     738:	82 e0       	ldi	r24, 0x02	; 2
     73a:	57 cf       	rjmp	.-338    	; 0x5ea <__LOCK_REGION_LENGTH__+0x1ea>
     73c:	80 91 b5 21 	lds	r24, 0x21B5	; 0x8021b5 <headdirect+0x3>
     740:	81 11       	cpse	r24, r1
     742:	9d c0       	rjmp	.+314    	; 0x87e <__LOCK_REGION_LENGTH__+0x47e>
     744:	85 e8       	ldi	r24, 0x85	; 133
     746:	92 e0       	ldi	r25, 0x02	; 2
     748:	0e 94 2a 0a 	call	0x1454	; 0x1454 <printString>
     74c:	83 e0       	ldi	r24, 0x03	; 3
     74e:	0e 94 68 09 	call	0x12d0	; 0x12d0 <readObs>
     752:	e8 2e       	mov	r14, r24
     754:	83 e0       	ldi	r24, 0x03	; 3
     756:	0e 94 74 09 	call	0x12e8	; 0x12e8 <PINtoInt>
     75a:	96 e0       	ldi	r25, 0x06	; 6
     75c:	9a 9d       	mul	r25, r10
     75e:	f0 01       	movw	r30, r0
     760:	9b 9d       	mul	r25, r11
     762:	f0 0d       	add	r31, r0
     764:	11 24       	eor	r1, r1
     766:	98 ed       	ldi	r25, 0xD8	; 216
     768:	9c 9f       	mul	r25, r28
     76a:	90 01       	movw	r18, r0
     76c:	9d 9f       	mul	r25, r29
     76e:	30 0d       	add	r19, r0
     770:	11 24       	eor	r1, r1
     772:	e2 0f       	add	r30, r18
     774:	f3 1f       	adc	r31, r19
     776:	e5 5b       	subi	r30, 0xB5	; 181
     778:	fc 4f       	sbci	r31, 0xFC	; 252
     77a:	94 81       	ldd	r25, Z+4	; 0x04
     77c:	91 11       	cpse	r25, r1
     77e:	0c c0       	rjmp	.+24     	; 0x798 <__LOCK_REGION_LENGTH__+0x398>
     780:	e8 12       	cpse	r14, r24
     782:	0a c0       	rjmp	.+20     	; 0x798 <__LOCK_REGION_LENGTH__+0x398>
     784:	f4 82       	std	Z+4, r15	; 0x04
     786:	f0 92 49 03 	sts	0x0349, r15	; 0x800349 <DirToGo>
     78a:	83 e0       	ldi	r24, 0x03	; 3
     78c:	80 93 4a 03 	sts	0x034A, r24	; 0x80034a <DirToGo+0x1>
     790:	86 e5       	ldi	r24, 0x56	; 86
     792:	92 e0       	ldi	r25, 0x02	; 2
     794:	0e 94 2a 0a 	call	0x1454	; 0x1454 <printString>
     798:	81 e0       	ldi	r24, 0x01	; 1
     79a:	0e 94 68 09 	call	0x12d0	; 0x12d0 <readObs>
     79e:	b8 2e       	mov	r11, r24
     7a0:	81 e0       	ldi	r24, 0x01	; 1
     7a2:	0e 94 74 09 	call	0x12e8	; 0x12e8 <PINtoInt>
     7a6:	96 e0       	ldi	r25, 0x06	; 6
     7a8:	90 9f       	mul	r25, r16
     7aa:	f0 01       	movw	r30, r0
     7ac:	91 9f       	mul	r25, r17
     7ae:	f0 0d       	add	r31, r0
     7b0:	11 24       	eor	r1, r1
     7b2:	98 ed       	ldi	r25, 0xD8	; 216
     7b4:	9c 9d       	mul	r25, r12
     7b6:	90 01       	movw	r18, r0
     7b8:	9d 9d       	mul	r25, r13
     7ba:	30 0d       	add	r19, r0
     7bc:	11 24       	eor	r1, r1
     7be:	e2 0f       	add	r30, r18
     7c0:	f3 1f       	adc	r31, r19
     7c2:	e5 5b       	subi	r30, 0xB5	; 181
     7c4:	fc 4f       	sbci	r31, 0xFC	; 252
     7c6:	94 81       	ldd	r25, Z+4	; 0x04
     7c8:	91 11       	cpse	r25, r1
     7ca:	0d c0       	rjmp	.+26     	; 0x7e6 <__LOCK_REGION_LENGTH__+0x3e6>
     7cc:	b8 12       	cpse	r11, r24
     7ce:	0b c0       	rjmp	.+22     	; 0x7e6 <__LOCK_REGION_LENGTH__+0x3e6>
     7d0:	81 e0       	ldi	r24, 0x01	; 1
     7d2:	84 83       	std	Z+4, r24	; 0x04
     7d4:	10 92 49 03 	sts	0x0349, r1	; 0x800349 <DirToGo>
     7d8:	82 e0       	ldi	r24, 0x02	; 2
     7da:	80 93 4a 03 	sts	0x034A, r24	; 0x80034a <DirToGo+0x1>
     7de:	8d e5       	ldi	r24, 0x5D	; 93
     7e0:	92 e0       	ldi	r25, 0x02	; 2
     7e2:	0e 94 2a 0a 	call	0x1454	; 0x1454 <printString>
     7e6:	82 e0       	ldi	r24, 0x02	; 2
     7e8:	0e 94 68 09 	call	0x12d0	; 0x12d0 <readObs>
     7ec:	d8 2e       	mov	r13, r24
     7ee:	82 e0       	ldi	r24, 0x02	; 2
     7f0:	0e 94 74 09 	call	0x12e8	; 0x12e8 <PINtoInt>
     7f4:	ae 01       	movw	r20, r28
     7f6:	41 50       	subi	r20, 0x01	; 1
     7f8:	51 09       	sbc	r21, r1
     7fa:	96 e0       	ldi	r25, 0x06	; 6
     7fc:	90 9f       	mul	r25, r16
     7fe:	f0 01       	movw	r30, r0
     800:	91 9f       	mul	r25, r17
     802:	f0 0d       	add	r31, r0
     804:	11 24       	eor	r1, r1
     806:	98 ed       	ldi	r25, 0xD8	; 216
     808:	94 9f       	mul	r25, r20
     80a:	90 01       	movw	r18, r0
     80c:	95 9f       	mul	r25, r21
     80e:	30 0d       	add	r19, r0
     810:	11 24       	eor	r1, r1
     812:	e2 0f       	add	r30, r18
     814:	f3 1f       	adc	r31, r19
     816:	e5 5b       	subi	r30, 0xB5	; 181
     818:	fc 4f       	sbci	r31, 0xFC	; 252
     81a:	94 81       	ldd	r25, Z+4	; 0x04
     81c:	91 11       	cpse	r25, r1
     81e:	0d c0       	rjmp	.+26     	; 0x83a <__LOCK_REGION_LENGTH__+0x43a>
     820:	d8 12       	cpse	r13, r24
     822:	0b c0       	rjmp	.+22     	; 0x83a <__LOCK_REGION_LENGTH__+0x43a>
     824:	81 e0       	ldi	r24, 0x01	; 1
     826:	84 83       	std	Z+4, r24	; 0x04
     828:	92 e0       	ldi	r25, 0x02	; 2
     82a:	90 93 49 03 	sts	0x0349, r25	; 0x800349 <DirToGo>
     82e:	80 93 4a 03 	sts	0x034A, r24	; 0x80034a <DirToGo+0x1>
     832:	81 e6       	ldi	r24, 0x61	; 97
     834:	92 e0       	ldi	r25, 0x02	; 2
     836:	0e 94 2a 0a 	call	0x1454	; 0x1454 <printString>
     83a:	80 e0       	ldi	r24, 0x00	; 0
     83c:	0e 94 68 09 	call	0x12d0	; 0x12d0 <readObs>
     840:	d8 2e       	mov	r13, r24
     842:	80 e0       	ldi	r24, 0x00	; 0
     844:	0e 94 74 09 	call	0x12e8	; 0x12e8 <PINtoInt>
     848:	01 50       	subi	r16, 0x01	; 1
     84a:	11 09       	sbc	r17, r1
     84c:	96 e0       	ldi	r25, 0x06	; 6
     84e:	90 9f       	mul	r25, r16
     850:	f0 01       	movw	r30, r0
     852:	91 9f       	mul	r25, r17
     854:	f0 0d       	add	r31, r0
     856:	11 24       	eor	r1, r1
     858:	98 ed       	ldi	r25, 0xD8	; 216
     85a:	9c 9f       	mul	r25, r28
     85c:	90 01       	movw	r18, r0
     85e:	9d 9f       	mul	r25, r29
     860:	30 0d       	add	r19, r0
     862:	11 24       	eor	r1, r1
     864:	e2 0f       	add	r30, r18
     866:	f3 1f       	adc	r31, r19
     868:	e5 5b       	subi	r30, 0xB5	; 181
     86a:	fc 4f       	sbci	r31, 0xFC	; 252
     86c:	94 81       	ldd	r25, Z+4	; 0x04
     86e:	91 11       	cpse	r25, r1
     870:	0b c0       	rjmp	.+22     	; 0x888 <__LOCK_REGION_LENGTH__+0x488>
     872:	d8 12       	cpse	r13, r24
     874:	09 c0       	rjmp	.+18     	; 0x888 <__LOCK_REGION_LENGTH__+0x488>
     876:	81 e0       	ldi	r24, 0x01	; 1
     878:	84 83       	std	Z+4, r24	; 0x04
     87a:	83 e0       	ldi	r24, 0x03	; 3
     87c:	b6 ce       	rjmp	.-660    	; 0x5ea <__LOCK_REGION_LENGTH__+0x1ea>
     87e:	84 e0       	ldi	r24, 0x04	; 4
     880:	80 93 49 03 	sts	0x0349, r24	; 0x800349 <DirToGo>
     884:	83 e0       	ldi	r24, 0x03	; 3
     886:	06 c0       	rjmp	.+12     	; 0x894 <__LOCK_REGION_LENGTH__+0x494>
     888:	10 92 af 21 	sts	0x21AF, r1	; 0x8021af <isExecute>
     88c:	09 c0       	rjmp	.+18     	; 0x8a0 <__LOCK_REGION_LENGTH__+0x4a0>
     88e:	84 e0       	ldi	r24, 0x04	; 4
     890:	80 93 49 03 	sts	0x0349, r24	; 0x800349 <DirToGo>
     894:	80 93 4a 03 	sts	0x034A, r24	; 0x80034a <DirToGo+0x1>
     898:	f1 2c       	mov	r15, r1
     89a:	02 c0       	rjmp	.+4      	; 0x8a0 <__LOCK_REGION_LENGTH__+0x4a0>
     89c:	ff 24       	eor	r15, r15
     89e:	f3 94       	inc	r15
     8a0:	8f 2d       	mov	r24, r15
     8a2:	df 91       	pop	r29
     8a4:	cf 91       	pop	r28
     8a6:	1f 91       	pop	r17
     8a8:	0f 91       	pop	r16
     8aa:	ff 90       	pop	r15
     8ac:	ef 90       	pop	r14
     8ae:	df 90       	pop	r13
     8b0:	cf 90       	pop	r12
     8b2:	bf 90       	pop	r11
     8b4:	af 90       	pop	r10
     8b6:	08 95       	ret

000008b8 <UpdateArray>:
     8b8:	26 e0       	ldi	r18, 0x06	; 6
     8ba:	26 9f       	mul	r18, r22
     8bc:	f0 01       	movw	r30, r0
     8be:	27 9f       	mul	r18, r23
     8c0:	f0 0d       	add	r31, r0
     8c2:	11 24       	eor	r1, r1
     8c4:	28 ed       	ldi	r18, 0xD8	; 216
     8c6:	ac 01       	movw	r20, r24
     8c8:	24 9f       	mul	r18, r20
     8ca:	c0 01       	movw	r24, r0
     8cc:	25 9f       	mul	r18, r21
     8ce:	90 0d       	add	r25, r0
     8d0:	11 24       	eor	r1, r1
     8d2:	e8 0f       	add	r30, r24
     8d4:	f9 1f       	adc	r31, r25
     8d6:	e5 5b       	subi	r30, 0xB5	; 181
     8d8:	fc 4f       	sbci	r31, 0xFC	; 252
     8da:	81 e0       	ldi	r24, 0x01	; 1
     8dc:	84 83       	std	Z+4, r24	; 0x04
     8de:	08 95       	ret

000008e0 <EcluideanDist>:
     8e0:	8f 92       	push	r8
     8e2:	9f 92       	push	r9
     8e4:	af 92       	push	r10
     8e6:	bf 92       	push	r11
     8e8:	cf 92       	push	r12
     8ea:	df 92       	push	r13
     8ec:	ef 92       	push	r14
     8ee:	ff 92       	push	r15
     8f0:	0f 93       	push	r16
     8f2:	1f 93       	push	r17
     8f4:	cf 93       	push	r28
     8f6:	df 93       	push	r29
     8f8:	eb 01       	movw	r28, r22
     8fa:	89 01       	movw	r16, r18
     8fc:	84 1b       	sub	r24, r20
     8fe:	95 0b       	sbc	r25, r21
     900:	bc 01       	movw	r22, r24
     902:	80 e0       	ldi	r24, 0x00	; 0
     904:	90 e0       	ldi	r25, 0x00	; 0
     906:	0e 94 01 0c 	call	0x1802	; 0x1802 <__floatunsisf>
     90a:	6b 01       	movw	r12, r22
     90c:	7c 01       	movw	r14, r24
     90e:	be 01       	movw	r22, r28
     910:	60 1b       	sub	r22, r16
     912:	71 0b       	sbc	r23, r17
     914:	80 e0       	ldi	r24, 0x00	; 0
     916:	90 e0       	ldi	r25, 0x00	; 0
     918:	0e 94 01 0c 	call	0x1802	; 0x1802 <__floatunsisf>
     91c:	4b 01       	movw	r8, r22
     91e:	5c 01       	movw	r10, r24
     920:	a7 01       	movw	r20, r14
     922:	96 01       	movw	r18, r12
     924:	c7 01       	movw	r24, r14
     926:	b6 01       	movw	r22, r12
     928:	0e 94 8f 0c 	call	0x191e	; 0x191e <__mulsf3>
     92c:	6b 01       	movw	r12, r22
     92e:	7c 01       	movw	r14, r24
     930:	a5 01       	movw	r20, r10
     932:	94 01       	movw	r18, r8
     934:	c5 01       	movw	r24, r10
     936:	b4 01       	movw	r22, r8
     938:	0e 94 8f 0c 	call	0x191e	; 0x191e <__mulsf3>
     93c:	9b 01       	movw	r18, r22
     93e:	ac 01       	movw	r20, r24
     940:	c7 01       	movw	r24, r14
     942:	b6 01       	movw	r22, r12
     944:	0e 94 66 0b 	call	0x16cc	; 0x16cc <__addsf3>
     948:	0e 94 02 0d 	call	0x1a04	; 0x1a04 <sqrt>
     94c:	0e 94 d2 0b 	call	0x17a4	; 0x17a4 <__fixunssfsi>
     950:	cb 01       	movw	r24, r22
     952:	df 91       	pop	r29
     954:	cf 91       	pop	r28
     956:	1f 91       	pop	r17
     958:	0f 91       	pop	r16
     95a:	ff 90       	pop	r15
     95c:	ef 90       	pop	r14
     95e:	df 90       	pop	r13
     960:	cf 90       	pop	r12
     962:	bf 90       	pop	r11
     964:	af 90       	pop	r10
     966:	9f 90       	pop	r9
     968:	8f 90       	pop	r8
     96a:	08 95       	ret

0000096c <CheckMaze>:
     96c:	4f 92       	push	r4
     96e:	5f 92       	push	r5
     970:	6f 92       	push	r6
     972:	7f 92       	push	r7
     974:	8f 92       	push	r8
     976:	9f 92       	push	r9
     978:	af 92       	push	r10
     97a:	bf 92       	push	r11
     97c:	cf 92       	push	r12
     97e:	df 92       	push	r13
     980:	ef 92       	push	r14
     982:	ff 92       	push	r15
     984:	0f 93       	push	r16
     986:	1f 93       	push	r17
     988:	cf 93       	push	r28
     98a:	df 93       	push	r29
     98c:	2c 01       	movw	r4, r24
     98e:	3b 01       	movw	r6, r22
     990:	8b e4       	ldi	r24, 0x4B	; 75
     992:	c8 2e       	mov	r12, r24
     994:	83 e0       	ldi	r24, 0x03	; 3
     996:	d8 2e       	mov	r13, r24
     998:	94 e2       	ldi	r25, 0x24	; 36
     99a:	a9 2e       	mov	r10, r25
     99c:	b1 2c       	mov	r11, r1
     99e:	00 e0       	ldi	r16, 0x00	; 0
     9a0:	10 e0       	ldi	r17, 0x00	; 0
     9a2:	76 01       	movw	r14, r12
     9a4:	c0 e0       	ldi	r28, 0x00	; 0
     9a6:	d0 e0       	ldi	r29, 0x00	; 0
     9a8:	f7 01       	movw	r30, r14
     9aa:	84 81       	ldd	r24, Z+4	; 0x04
     9ac:	81 30       	cpi	r24, 0x01	; 1
     9ae:	19 f5       	brne	.+70     	; 0x9f6 <CheckMaze+0x8a>
     9b0:	85 81       	ldd	r24, Z+5	; 0x05
     9b2:	81 11       	cpse	r24, r1
     9b4:	20 c0       	rjmp	.+64     	; 0x9f6 <CheckMaze+0x8a>
     9b6:	9e 01       	movw	r18, r28
     9b8:	a8 01       	movw	r20, r16
     9ba:	b3 01       	movw	r22, r6
     9bc:	c2 01       	movw	r24, r4
     9be:	0e 94 70 04 	call	0x8e0	; 0x8e0 <EcluideanDist>
     9c2:	4c 01       	movw	r8, r24
     9c4:	0e 94 82 0a 	call	0x1504	; 0x1504 <printWord>
     9c8:	8a e7       	ldi	r24, 0x7A	; 122
     9ca:	92 e0       	ldi	r25, 0x02	; 2
     9cc:	0e 94 2a 0a 	call	0x1454	; 0x1454 <printString>
     9d0:	c5 01       	movw	r24, r10
     9d2:	0e 94 82 0a 	call	0x1504	; 0x1504 <printWord>
     9d6:	8e e8       	ldi	r24, 0x8E	; 142
     9d8:	92 e0       	ldi	r25, 0x02	; 2
     9da:	0e 94 2a 0a 	call	0x1454	; 0x1454 <printString>
     9de:	8a 14       	cp	r8, r10
     9e0:	9b 04       	cpc	r9, r11
     9e2:	48 f4       	brcc	.+18     	; 0x9f6 <CheckMaze+0x8a>
     9e4:	10 93 3f 03 	sts	0x033F, r17	; 0x80033f <__data_end+0x1>
     9e8:	00 93 3e 03 	sts	0x033E, r16	; 0x80033e <__data_end>
     9ec:	d0 93 41 03 	sts	0x0341, r29	; 0x800341 <__data_end+0x3>
     9f0:	c0 93 40 03 	sts	0x0340, r28	; 0x800340 <__data_end+0x2>
     9f4:	54 01       	movw	r10, r8
     9f6:	21 96       	adiw	r28, 0x01	; 1
     9f8:	f6 e0       	ldi	r31, 0x06	; 6
     9fa:	ef 0e       	add	r14, r31
     9fc:	f1 1c       	adc	r15, r1
     9fe:	c4 32       	cpi	r28, 0x24	; 36
     a00:	d1 05       	cpc	r29, r1
     a02:	91 f6       	brne	.-92     	; 0x9a8 <CheckMaze+0x3c>
     a04:	0f 5f       	subi	r16, 0xFF	; 255
     a06:	1f 4f       	sbci	r17, 0xFF	; 255
     a08:	88 ed       	ldi	r24, 0xD8	; 216
     a0a:	c8 0e       	add	r12, r24
     a0c:	d1 1c       	adc	r13, r1
     a0e:	04 32       	cpi	r16, 0x24	; 36
     a10:	11 05       	cpc	r17, r1
     a12:	39 f6       	brne	.-114    	; 0x9a2 <CheckMaze+0x36>
     a14:	8e e3       	ldi	r24, 0x3E	; 62
     a16:	93 e0       	ldi	r25, 0x03	; 3
     a18:	0e 94 82 0a 	call	0x1504	; 0x1504 <printWord>
     a1c:	8e e3       	ldi	r24, 0x3E	; 62
     a1e:	93 e0       	ldi	r25, 0x03	; 3
     a20:	df 91       	pop	r29
     a22:	cf 91       	pop	r28
     a24:	1f 91       	pop	r17
     a26:	0f 91       	pop	r16
     a28:	ff 90       	pop	r15
     a2a:	ef 90       	pop	r14
     a2c:	df 90       	pop	r13
     a2e:	cf 90       	pop	r12
     a30:	bf 90       	pop	r11
     a32:	af 90       	pop	r10
     a34:	9f 90       	pop	r9
     a36:	8f 90       	pop	r8
     a38:	7f 90       	pop	r7
     a3a:	6f 90       	pop	r6
     a3c:	5f 90       	pop	r5
     a3e:	4f 90       	pop	r4
     a40:	08 95       	ret

00000a42 <initMaze>:
     a42:	8b e4       	ldi	r24, 0x4B	; 75
     a44:	93 e0       	ldi	r25, 0x03	; 3
     a46:	fc 01       	movw	r30, r24
     a48:	20 e0       	ldi	r18, 0x00	; 0
     a4a:	30 e0       	ldi	r19, 0x00	; 0
     a4c:	10 82       	st	Z, r1
     a4e:	11 82       	std	Z+1, r1	; 0x01
     a50:	12 82       	std	Z+2, r1	; 0x02
     a52:	13 82       	std	Z+3, r1	; 0x03
     a54:	14 82       	std	Z+4, r1	; 0x04
     a56:	15 82       	std	Z+5, r1	; 0x05
     a58:	2f 5f       	subi	r18, 0xFF	; 255
     a5a:	3f 4f       	sbci	r19, 0xFF	; 255
     a5c:	36 96       	adiw	r30, 0x06	; 6
     a5e:	24 32       	cpi	r18, 0x24	; 36
     a60:	31 05       	cpc	r19, r1
     a62:	a1 f7       	brne	.-24     	; 0xa4c <initMaze+0xa>
     a64:	88 52       	subi	r24, 0x28	; 40
     a66:	9f 4f       	sbci	r25, 0xFF	; 255
     a68:	21 e2       	ldi	r18, 0x21	; 33
     a6a:	8b 3a       	cpi	r24, 0xAB	; 171
     a6c:	92 07       	cpc	r25, r18
     a6e:	59 f7       	brne	.-42     	; 0xa46 <initMaze+0x4>
     a70:	08 95       	ret

00000a72 <TothatBox>:
     a72:	8f 92       	push	r8
     a74:	9f 92       	push	r9
     a76:	af 92       	push	r10
     a78:	bf 92       	push	r11
     a7a:	cf 92       	push	r12
     a7c:	df 92       	push	r13
     a7e:	ef 92       	push	r14
     a80:	ff 92       	push	r15
     a82:	0f 93       	push	r16
     a84:	1f 93       	push	r17
     a86:	cf 93       	push	r28
     a88:	df 93       	push	r29
     a8a:	ec 01       	movw	r28, r24
     a8c:	8b 01       	movw	r16, r22
     a8e:	7a 01       	movw	r14, r20
     a90:	69 01       	movw	r12, r18
     a92:	82 e9       	ldi	r24, 0x92	; 146
     a94:	92 e0       	ldi	r25, 0x02	; 2
     a96:	0e 94 2a 0a 	call	0x1454	; 0x1454 <printString>
     a9a:	98 01       	movw	r18, r16
     a9c:	ae 01       	movw	r20, r28
     a9e:	b6 01       	movw	r22, r12
     aa0:	c7 01       	movw	r24, r14
     aa2:	0e 94 70 04 	call	0x8e0	; 0x8e0 <EcluideanDist>
     aa6:	89 2b       	or	r24, r25
     aa8:	09 f0       	breq	.+2      	; 0xaac <TothatBox+0x3a>
     aaa:	5a c3       	rjmp	.+1716   	; 0x1160 <TothatBox+0x6ee>
     aac:	90 90 af 21 	lds	r9, 0x21AF	; 0x8021af <isExecute>
     ab0:	81 e0       	ldi	r24, 0x01	; 1
     ab2:	98 12       	cpse	r9, r24
     ab4:	4c c3       	rjmp	.+1688   	; 0x114e <TothatBox+0x6dc>
     ab6:	8e e9       	ldi	r24, 0x9E	; 158
     ab8:	92 e0       	ldi	r25, 0x02	; 2
     aba:	0e 94 2a 0a 	call	0x1454	; 0x1454 <printString>
     abe:	80 91 b2 21 	lds	r24, 0x21B2	; 0x8021b2 <headdirect>
     ac2:	81 11       	cpse	r24, r1
     ac4:	d2 c0       	rjmp	.+420    	; 0xc6a <TothatBox+0x1f8>
     ac6:	8d e4       	ldi	r24, 0x4D	; 77
     ac8:	92 e0       	ldi	r25, 0x02	; 2
     aca:	0e 94 2a 0a 	call	0x1454	; 0x1454 <printString>
     ace:	83 e0       	ldi	r24, 0x03	; 3
     ad0:	0e 94 68 09 	call	0x12d0	; 0x12d0 <readObs>
     ad4:	b8 2e       	mov	r11, r24
     ad6:	83 e0       	ldi	r24, 0x03	; 3
     ad8:	0e 94 74 09 	call	0x12e8	; 0x12e8 <PINtoInt>
     adc:	ae 01       	movw	r20, r28
     ade:	41 50       	subi	r20, 0x01	; 1
     ae0:	51 09       	sbc	r21, r1
     ae2:	96 e0       	ldi	r25, 0x06	; 6
     ae4:	90 9f       	mul	r25, r16
     ae6:	f0 01       	movw	r30, r0
     ae8:	91 9f       	mul	r25, r17
     aea:	f0 0d       	add	r31, r0
     aec:	11 24       	eor	r1, r1
     aee:	98 ed       	ldi	r25, 0xD8	; 216
     af0:	94 9f       	mul	r25, r20
     af2:	90 01       	movw	r18, r0
     af4:	95 9f       	mul	r25, r21
     af6:	30 0d       	add	r19, r0
     af8:	11 24       	eor	r1, r1
     afa:	e2 0f       	add	r30, r18
     afc:	f3 1f       	adc	r31, r19
     afe:	e5 5b       	subi	r30, 0xB5	; 181
     b00:	fc 4f       	sbci	r31, 0xFC	; 252
     b02:	94 81       	ldd	r25, Z+4	; 0x04
     b04:	91 11       	cpse	r25, r1
     b06:	18 c0       	rjmp	.+48     	; 0xb38 <TothatBox+0xc6>
     b08:	b8 12       	cpse	r11, r24
     b0a:	16 c0       	rjmp	.+44     	; 0xb38 <TothatBox+0xc6>
     b0c:	98 01       	movw	r18, r16
     b0e:	b6 01       	movw	r22, r12
     b10:	c7 01       	movw	r24, r14
     b12:	0e 94 70 04 	call	0x8e0	; 0x8e0 <EcluideanDist>
     b16:	5c 01       	movw	r10, r24
     b18:	88 ee       	ldi	r24, 0xE8	; 232
     b1a:	a8 16       	cp	r10, r24
     b1c:	83 e0       	ldi	r24, 0x03	; 3
     b1e:	b8 06       	cpc	r11, r24
     b20:	58 f4       	brcc	.+22     	; 0xb38 <TothatBox+0xc6>
     b22:	82 e0       	ldi	r24, 0x02	; 2
     b24:	80 93 49 03 	sts	0x0349, r24	; 0x800349 <DirToGo>
     b28:	83 e0       	ldi	r24, 0x03	; 3
     b2a:	80 93 4a 03 	sts	0x034A, r24	; 0x80034a <DirToGo+0x1>
     b2e:	86 e5       	ldi	r24, 0x56	; 86
     b30:	92 e0       	ldi	r25, 0x02	; 2
     b32:	0e 94 2a 0a 	call	0x1454	; 0x1454 <printString>
     b36:	04 c0       	rjmp	.+8      	; 0xb40 <TothatBox+0xce>
     b38:	37 ee       	ldi	r19, 0xE7	; 231
     b3a:	a3 2e       	mov	r10, r19
     b3c:	33 e0       	ldi	r19, 0x03	; 3
     b3e:	b3 2e       	mov	r11, r19
     b40:	81 e0       	ldi	r24, 0x01	; 1
     b42:	0e 94 68 09 	call	0x12d0	; 0x12d0 <readObs>
     b46:	98 2e       	mov	r9, r24
     b48:	81 e0       	ldi	r24, 0x01	; 1
     b4a:	0e 94 74 09 	call	0x12e8	; 0x12e8 <PINtoInt>
     b4e:	98 01       	movw	r18, r16
     b50:	2f 5f       	subi	r18, 0xFF	; 255
     b52:	3f 4f       	sbci	r19, 0xFF	; 255
     b54:	96 e0       	ldi	r25, 0x06	; 6
     b56:	92 9f       	mul	r25, r18
     b58:	f0 01       	movw	r30, r0
     b5a:	93 9f       	mul	r25, r19
     b5c:	f0 0d       	add	r31, r0
     b5e:	11 24       	eor	r1, r1
     b60:	98 ed       	ldi	r25, 0xD8	; 216
     b62:	9c 9f       	mul	r25, r28
     b64:	a0 01       	movw	r20, r0
     b66:	9d 9f       	mul	r25, r29
     b68:	50 0d       	add	r21, r0
     b6a:	11 24       	eor	r1, r1
     b6c:	e4 0f       	add	r30, r20
     b6e:	f5 1f       	adc	r31, r21
     b70:	e5 5b       	subi	r30, 0xB5	; 181
     b72:	fc 4f       	sbci	r31, 0xFC	; 252
     b74:	94 81       	ldd	r25, Z+4	; 0x04
     b76:	91 11       	cpse	r25, r1
     b78:	16 c0       	rjmp	.+44     	; 0xba6 <TothatBox+0x134>
     b7a:	98 12       	cpse	r9, r24
     b7c:	14 c0       	rjmp	.+40     	; 0xba6 <TothatBox+0x134>
     b7e:	ae 01       	movw	r20, r28
     b80:	b6 01       	movw	r22, r12
     b82:	c7 01       	movw	r24, r14
     b84:	0e 94 70 04 	call	0x8e0	; 0x8e0 <EcluideanDist>
     b88:	4c 01       	movw	r8, r24
     b8a:	8a 15       	cp	r24, r10
     b8c:	9b 05       	cpc	r25, r11
     b8e:	58 f4       	brcc	.+22     	; 0xba6 <TothatBox+0x134>
     b90:	81 e0       	ldi	r24, 0x01	; 1
     b92:	80 93 49 03 	sts	0x0349, r24	; 0x800349 <DirToGo>
     b96:	82 e0       	ldi	r24, 0x02	; 2
     b98:	80 93 4a 03 	sts	0x034A, r24	; 0x80034a <DirToGo+0x1>
     b9c:	8d e5       	ldi	r24, 0x5D	; 93
     b9e:	92 e0       	ldi	r25, 0x02	; 2
     ba0:	0e 94 2a 0a 	call	0x1454	; 0x1454 <printString>
     ba4:	54 01       	movw	r10, r8
     ba6:	82 e0       	ldi	r24, 0x02	; 2
     ba8:	0e 94 68 09 	call	0x12d0	; 0x12d0 <readObs>
     bac:	98 2e       	mov	r9, r24
     bae:	82 e0       	ldi	r24, 0x02	; 2
     bb0:	0e 94 74 09 	call	0x12e8	; 0x12e8 <PINtoInt>
     bb4:	98 01       	movw	r18, r16
     bb6:	21 50       	subi	r18, 0x01	; 1
     bb8:	31 09       	sbc	r19, r1
     bba:	96 e0       	ldi	r25, 0x06	; 6
     bbc:	92 9f       	mul	r25, r18
     bbe:	f0 01       	movw	r30, r0
     bc0:	93 9f       	mul	r25, r19
     bc2:	f0 0d       	add	r31, r0
     bc4:	11 24       	eor	r1, r1
     bc6:	98 ed       	ldi	r25, 0xD8	; 216
     bc8:	9c 9f       	mul	r25, r28
     bca:	a0 01       	movw	r20, r0
     bcc:	9d 9f       	mul	r25, r29
     bce:	50 0d       	add	r21, r0
     bd0:	11 24       	eor	r1, r1
     bd2:	e4 0f       	add	r30, r20
     bd4:	f5 1f       	adc	r31, r21
     bd6:	e5 5b       	subi	r30, 0xB5	; 181
     bd8:	fc 4f       	sbci	r31, 0xFC	; 252
     bda:	94 81       	ldd	r25, Z+4	; 0x04
     bdc:	91 11       	cpse	r25, r1
     bde:	16 c0       	rjmp	.+44     	; 0xc0c <TothatBox+0x19a>
     be0:	98 12       	cpse	r9, r24
     be2:	14 c0       	rjmp	.+40     	; 0xc0c <TothatBox+0x19a>
     be4:	ae 01       	movw	r20, r28
     be6:	b6 01       	movw	r22, r12
     be8:	c7 01       	movw	r24, r14
     bea:	0e 94 70 04 	call	0x8e0	; 0x8e0 <EcluideanDist>
     bee:	4c 01       	movw	r8, r24
     bf0:	8a 15       	cp	r24, r10
     bf2:	9b 05       	cpc	r25, r11
     bf4:	58 f4       	brcc	.+22     	; 0xc0c <TothatBox+0x19a>
     bf6:	83 e0       	ldi	r24, 0x03	; 3
     bf8:	80 93 49 03 	sts	0x0349, r24	; 0x800349 <DirToGo>
     bfc:	81 e0       	ldi	r24, 0x01	; 1
     bfe:	80 93 4a 03 	sts	0x034A, r24	; 0x80034a <DirToGo+0x1>
     c02:	81 e6       	ldi	r24, 0x61	; 97
     c04:	92 e0       	ldi	r25, 0x02	; 2
     c06:	0e 94 2a 0a 	call	0x1454	; 0x1454 <printString>
     c0a:	54 01       	movw	r10, r8
     c0c:	80 e0       	ldi	r24, 0x00	; 0
     c0e:	0e 94 68 09 	call	0x12d0	; 0x12d0 <readObs>
     c12:	98 2e       	mov	r9, r24
     c14:	80 e0       	ldi	r24, 0x00	; 0
     c16:	0e 94 74 09 	call	0x12e8	; 0x12e8 <PINtoInt>
     c1a:	ae 01       	movw	r20, r28
     c1c:	4f 5f       	subi	r20, 0xFF	; 255
     c1e:	5f 4f       	sbci	r21, 0xFF	; 255
     c20:	96 e0       	ldi	r25, 0x06	; 6
     c22:	90 9f       	mul	r25, r16
     c24:	f0 01       	movw	r30, r0
     c26:	91 9f       	mul	r25, r17
     c28:	f0 0d       	add	r31, r0
     c2a:	11 24       	eor	r1, r1
     c2c:	98 ed       	ldi	r25, 0xD8	; 216
     c2e:	94 9f       	mul	r25, r20
     c30:	90 01       	movw	r18, r0
     c32:	95 9f       	mul	r25, r21
     c34:	30 0d       	add	r19, r0
     c36:	11 24       	eor	r1, r1
     c38:	e2 0f       	add	r30, r18
     c3a:	f3 1f       	adc	r31, r19
     c3c:	e5 5b       	subi	r30, 0xB5	; 181
     c3e:	fc 4f       	sbci	r31, 0xFC	; 252
     c40:	94 81       	ldd	r25, Z+4	; 0x04
     c42:	91 11       	cpse	r25, r1
     c44:	84 c2       	rjmp	.+1288   	; 0x114e <TothatBox+0x6dc>
     c46:	98 12       	cpse	r9, r24
     c48:	82 c2       	rjmp	.+1284   	; 0x114e <TothatBox+0x6dc>
     c4a:	98 01       	movw	r18, r16
     c4c:	b6 01       	movw	r22, r12
     c4e:	c7 01       	movw	r24, r14
     c50:	0e 94 70 04 	call	0x8e0	; 0x8e0 <EcluideanDist>
     c54:	8a 15       	cp	r24, r10
     c56:	9b 05       	cpc	r25, r11
     c58:	08 f0       	brcs	.+2      	; 0xc5c <TothatBox+0x1ea>
     c5a:	79 c2       	rjmp	.+1266   	; 0x114e <TothatBox+0x6dc>
     c5c:	10 92 49 03 	sts	0x0349, r1	; 0x800349 <DirToGo>
     c60:	10 92 4a 03 	sts	0x034A, r1	; 0x80034a <DirToGo+0x1>
     c64:	85 e6       	ldi	r24, 0x65	; 101
     c66:	92 e0       	ldi	r25, 0x02	; 2
     c68:	70 c2       	rjmp	.+1248   	; 0x114a <TothatBox+0x6d8>
     c6a:	80 91 b3 21 	lds	r24, 0x21B3	; 0x8021b3 <headdirect+0x1>
     c6e:	81 11       	cpse	r24, r1
     c70:	ca c0       	rjmp	.+404    	; 0xe06 <TothatBox+0x394>
     c72:	8c e6       	ldi	r24, 0x6C	; 108
     c74:	92 e0       	ldi	r25, 0x02	; 2
     c76:	0e 94 2a 0a 	call	0x1454	; 0x1454 <printString>
     c7a:	83 e0       	ldi	r24, 0x03	; 3
     c7c:	0e 94 68 09 	call	0x12d0	; 0x12d0 <readObs>
     c80:	b8 2e       	mov	r11, r24
     c82:	83 e0       	ldi	r24, 0x03	; 3
     c84:	0e 94 74 09 	call	0x12e8	; 0x12e8 <PINtoInt>
     c88:	98 01       	movw	r18, r16
     c8a:	21 50       	subi	r18, 0x01	; 1
     c8c:	31 09       	sbc	r19, r1
     c8e:	96 e0       	ldi	r25, 0x06	; 6
     c90:	92 9f       	mul	r25, r18
     c92:	f0 01       	movw	r30, r0
     c94:	93 9f       	mul	r25, r19
     c96:	f0 0d       	add	r31, r0
     c98:	11 24       	eor	r1, r1
     c9a:	98 ed       	ldi	r25, 0xD8	; 216
     c9c:	9c 9f       	mul	r25, r28
     c9e:	a0 01       	movw	r20, r0
     ca0:	9d 9f       	mul	r25, r29
     ca2:	50 0d       	add	r21, r0
     ca4:	11 24       	eor	r1, r1
     ca6:	e4 0f       	add	r30, r20
     ca8:	f5 1f       	adc	r31, r21
     caa:	e5 5b       	subi	r30, 0xB5	; 181
     cac:	fc 4f       	sbci	r31, 0xFC	; 252
     cae:	94 81       	ldd	r25, Z+4	; 0x04
     cb0:	91 11       	cpse	r25, r1
     cb2:	17 c0       	rjmp	.+46     	; 0xce2 <TothatBox+0x270>
     cb4:	b8 12       	cpse	r11, r24
     cb6:	15 c0       	rjmp	.+42     	; 0xce2 <TothatBox+0x270>
     cb8:	ae 01       	movw	r20, r28
     cba:	b6 01       	movw	r22, r12
     cbc:	c7 01       	movw	r24, r14
     cbe:	0e 94 70 04 	call	0x8e0	; 0x8e0 <EcluideanDist>
     cc2:	5c 01       	movw	r10, r24
     cc4:	87 ee       	ldi	r24, 0xE7	; 231
     cc6:	a8 16       	cp	r10, r24
     cc8:	83 e0       	ldi	r24, 0x03	; 3
     cca:	b8 06       	cpc	r11, r24
     ccc:	50 f4       	brcc	.+20     	; 0xce2 <TothatBox+0x270>
     cce:	83 e0       	ldi	r24, 0x03	; 3
     cd0:	80 93 49 03 	sts	0x0349, r24	; 0x800349 <DirToGo>
     cd4:	80 93 4a 03 	sts	0x034A, r24	; 0x80034a <DirToGo+0x1>
     cd8:	86 e5       	ldi	r24, 0x56	; 86
     cda:	92 e0       	ldi	r25, 0x02	; 2
     cdc:	0e 94 2a 0a 	call	0x1454	; 0x1454 <printString>
     ce0:	04 c0       	rjmp	.+8      	; 0xcea <TothatBox+0x278>
     ce2:	27 ee       	ldi	r18, 0xE7	; 231
     ce4:	a2 2e       	mov	r10, r18
     ce6:	23 e0       	ldi	r18, 0x03	; 3
     ce8:	b2 2e       	mov	r11, r18
     cea:	81 e0       	ldi	r24, 0x01	; 1
     cec:	0e 94 68 09 	call	0x12d0	; 0x12d0 <readObs>
     cf0:	98 2e       	mov	r9, r24
     cf2:	81 e0       	ldi	r24, 0x01	; 1
     cf4:	0e 94 74 09 	call	0x12e8	; 0x12e8 <PINtoInt>
     cf8:	ae 01       	movw	r20, r28
     cfa:	41 50       	subi	r20, 0x01	; 1
     cfc:	51 09       	sbc	r21, r1
     cfe:	96 e0       	ldi	r25, 0x06	; 6
     d00:	90 9f       	mul	r25, r16
     d02:	f0 01       	movw	r30, r0
     d04:	91 9f       	mul	r25, r17
     d06:	f0 0d       	add	r31, r0
     d08:	11 24       	eor	r1, r1
     d0a:	98 ed       	ldi	r25, 0xD8	; 216
     d0c:	94 9f       	mul	r25, r20
     d0e:	90 01       	movw	r18, r0
     d10:	95 9f       	mul	r25, r21
     d12:	30 0d       	add	r19, r0
     d14:	11 24       	eor	r1, r1
     d16:	e2 0f       	add	r30, r18
     d18:	f3 1f       	adc	r31, r19
     d1a:	e5 5b       	subi	r30, 0xB5	; 181
     d1c:	fc 4f       	sbci	r31, 0xFC	; 252
     d1e:	94 81       	ldd	r25, Z+4	; 0x04
     d20:	91 11       	cpse	r25, r1
     d22:	15 c0       	rjmp	.+42     	; 0xd4e <TothatBox+0x2dc>
     d24:	98 12       	cpse	r9, r24
     d26:	13 c0       	rjmp	.+38     	; 0xd4e <TothatBox+0x2dc>
     d28:	98 01       	movw	r18, r16
     d2a:	b6 01       	movw	r22, r12
     d2c:	c7 01       	movw	r24, r14
     d2e:	0e 94 70 04 	call	0x8e0	; 0x8e0 <EcluideanDist>
     d32:	4c 01       	movw	r8, r24
     d34:	8a 15       	cp	r24, r10
     d36:	9b 05       	cpc	r25, r11
     d38:	50 f4       	brcc	.+20     	; 0xd4e <TothatBox+0x2dc>
     d3a:	82 e0       	ldi	r24, 0x02	; 2
     d3c:	80 93 49 03 	sts	0x0349, r24	; 0x800349 <DirToGo>
     d40:	80 93 4a 03 	sts	0x034A, r24	; 0x80034a <DirToGo+0x1>
     d44:	8d e5       	ldi	r24, 0x5D	; 93
     d46:	92 e0       	ldi	r25, 0x02	; 2
     d48:	0e 94 2a 0a 	call	0x1454	; 0x1454 <printString>
     d4c:	54 01       	movw	r10, r8
     d4e:	82 e0       	ldi	r24, 0x02	; 2
     d50:	0e 94 68 09 	call	0x12d0	; 0x12d0 <readObs>
     d54:	98 2e       	mov	r9, r24
     d56:	82 e0       	ldi	r24, 0x02	; 2
     d58:	0e 94 74 09 	call	0x12e8	; 0x12e8 <PINtoInt>
     d5c:	ae 01       	movw	r20, r28
     d5e:	4f 5f       	subi	r20, 0xFF	; 255
     d60:	5f 4f       	sbci	r21, 0xFF	; 255
     d62:	96 e0       	ldi	r25, 0x06	; 6
     d64:	90 9f       	mul	r25, r16
     d66:	f0 01       	movw	r30, r0
     d68:	91 9f       	mul	r25, r17
     d6a:	f0 0d       	add	r31, r0
     d6c:	11 24       	eor	r1, r1
     d6e:	98 ed       	ldi	r25, 0xD8	; 216
     d70:	94 9f       	mul	r25, r20
     d72:	90 01       	movw	r18, r0
     d74:	95 9f       	mul	r25, r21
     d76:	30 0d       	add	r19, r0
     d78:	11 24       	eor	r1, r1
     d7a:	e2 0f       	add	r30, r18
     d7c:	f3 1f       	adc	r31, r19
     d7e:	e5 5b       	subi	r30, 0xB5	; 181
     d80:	fc 4f       	sbci	r31, 0xFC	; 252
     d82:	94 81       	ldd	r25, Z+4	; 0x04
     d84:	91 11       	cpse	r25, r1
     d86:	15 c0       	rjmp	.+42     	; 0xdb2 <TothatBox+0x340>
     d88:	98 12       	cpse	r9, r24
     d8a:	13 c0       	rjmp	.+38     	; 0xdb2 <TothatBox+0x340>
     d8c:	98 01       	movw	r18, r16
     d8e:	b6 01       	movw	r22, r12
     d90:	c7 01       	movw	r24, r14
     d92:	0e 94 70 04 	call	0x8e0	; 0x8e0 <EcluideanDist>
     d96:	4c 01       	movw	r8, r24
     d98:	8a 15       	cp	r24, r10
     d9a:	9b 05       	cpc	r25, r11
     d9c:	50 f4       	brcc	.+20     	; 0xdb2 <TothatBox+0x340>
     d9e:	10 92 49 03 	sts	0x0349, r1	; 0x800349 <DirToGo>
     da2:	81 e0       	ldi	r24, 0x01	; 1
     da4:	80 93 4a 03 	sts	0x034A, r24	; 0x80034a <DirToGo+0x1>
     da8:	81 e6       	ldi	r24, 0x61	; 97
     daa:	92 e0       	ldi	r25, 0x02	; 2
     dac:	0e 94 2a 0a 	call	0x1454	; 0x1454 <printString>
     db0:	54 01       	movw	r10, r8
     db2:	80 e0       	ldi	r24, 0x00	; 0
     db4:	0e 94 68 09 	call	0x12d0	; 0x12d0 <readObs>
     db8:	98 2e       	mov	r9, r24
     dba:	80 e0       	ldi	r24, 0x00	; 0
     dbc:	0e 94 74 09 	call	0x12e8	; 0x12e8 <PINtoInt>
     dc0:	98 01       	movw	r18, r16
     dc2:	2f 5f       	subi	r18, 0xFF	; 255
     dc4:	3f 4f       	sbci	r19, 0xFF	; 255
     dc6:	96 e0       	ldi	r25, 0x06	; 6
     dc8:	92 9f       	mul	r25, r18
     dca:	f0 01       	movw	r30, r0
     dcc:	93 9f       	mul	r25, r19
     dce:	f0 0d       	add	r31, r0
     dd0:	11 24       	eor	r1, r1
     dd2:	98 ed       	ldi	r25, 0xD8	; 216
     dd4:	9c 9f       	mul	r25, r28
     dd6:	a0 01       	movw	r20, r0
     dd8:	9d 9f       	mul	r25, r29
     dda:	50 0d       	add	r21, r0
     ddc:	11 24       	eor	r1, r1
     dde:	e4 0f       	add	r30, r20
     de0:	f5 1f       	adc	r31, r21
     de2:	e5 5b       	subi	r30, 0xB5	; 181
     de4:	fc 4f       	sbci	r31, 0xFC	; 252
     de6:	94 81       	ldd	r25, Z+4	; 0x04
     de8:	91 11       	cpse	r25, r1
     dea:	b1 c1       	rjmp	.+866    	; 0x114e <TothatBox+0x6dc>
     dec:	98 12       	cpse	r9, r24
     dee:	af c1       	rjmp	.+862    	; 0x114e <TothatBox+0x6dc>
     df0:	ae 01       	movw	r20, r28
     df2:	b6 01       	movw	r22, r12
     df4:	c7 01       	movw	r24, r14
     df6:	0e 94 70 04 	call	0x8e0	; 0x8e0 <EcluideanDist>
     dfa:	8a 15       	cp	r24, r10
     dfc:	9b 05       	cpc	r25, r11
     dfe:	08 f0       	brcs	.+2      	; 0xe02 <TothatBox+0x390>
     e00:	a6 c1       	rjmp	.+844    	; 0x114e <TothatBox+0x6dc>
     e02:	81 e0       	ldi	r24, 0x01	; 1
     e04:	9c c1       	rjmp	.+824    	; 0x113e <TothatBox+0x6cc>
     e06:	80 91 b4 21 	lds	r24, 0x21B4	; 0x8021b4 <headdirect+0x2>
     e0a:	81 11       	cpse	r24, r1
     e0c:	cb c0       	rjmp	.+406    	; 0xfa4 <TothatBox+0x532>
     e0e:	8c e7       	ldi	r24, 0x7C	; 124
     e10:	92 e0       	ldi	r25, 0x02	; 2
     e12:	0e 94 2a 0a 	call	0x1454	; 0x1454 <printString>
     e16:	83 e0       	ldi	r24, 0x03	; 3
     e18:	0e 94 68 09 	call	0x12d0	; 0x12d0 <readObs>
     e1c:	b8 2e       	mov	r11, r24
     e1e:	83 e0       	ldi	r24, 0x03	; 3
     e20:	0e 94 74 09 	call	0x12e8	; 0x12e8 <PINtoInt>
     e24:	ae 01       	movw	r20, r28
     e26:	4f 5f       	subi	r20, 0xFF	; 255
     e28:	5f 4f       	sbci	r21, 0xFF	; 255
     e2a:	96 e0       	ldi	r25, 0x06	; 6
     e2c:	90 9f       	mul	r25, r16
     e2e:	f0 01       	movw	r30, r0
     e30:	91 9f       	mul	r25, r17
     e32:	f0 0d       	add	r31, r0
     e34:	11 24       	eor	r1, r1
     e36:	98 ed       	ldi	r25, 0xD8	; 216
     e38:	94 9f       	mul	r25, r20
     e3a:	90 01       	movw	r18, r0
     e3c:	95 9f       	mul	r25, r21
     e3e:	30 0d       	add	r19, r0
     e40:	11 24       	eor	r1, r1
     e42:	e2 0f       	add	r30, r18
     e44:	f3 1f       	adc	r31, r19
     e46:	e5 5b       	subi	r30, 0xB5	; 181
     e48:	fc 4f       	sbci	r31, 0xFC	; 252
     e4a:	94 81       	ldd	r25, Z+4	; 0x04
     e4c:	91 11       	cpse	r25, r1
     e4e:	17 c0       	rjmp	.+46     	; 0xe7e <TothatBox+0x40c>
     e50:	b8 12       	cpse	r11, r24
     e52:	15 c0       	rjmp	.+42     	; 0xe7e <TothatBox+0x40c>
     e54:	98 01       	movw	r18, r16
     e56:	b6 01       	movw	r22, r12
     e58:	c7 01       	movw	r24, r14
     e5a:	0e 94 70 04 	call	0x8e0	; 0x8e0 <EcluideanDist>
     e5e:	5c 01       	movw	r10, r24
     e60:	87 ee       	ldi	r24, 0xE7	; 231
     e62:	a8 16       	cp	r10, r24
     e64:	83 e0       	ldi	r24, 0x03	; 3
     e66:	b8 06       	cpc	r11, r24
     e68:	50 f4       	brcc	.+20     	; 0xe7e <TothatBox+0x40c>
     e6a:	10 92 49 03 	sts	0x0349, r1	; 0x800349 <DirToGo>
     e6e:	83 e0       	ldi	r24, 0x03	; 3
     e70:	80 93 4a 03 	sts	0x034A, r24	; 0x80034a <DirToGo+0x1>
     e74:	86 e5       	ldi	r24, 0x56	; 86
     e76:	92 e0       	ldi	r25, 0x02	; 2
     e78:	0e 94 2a 0a 	call	0x1454	; 0x1454 <printString>
     e7c:	04 c0       	rjmp	.+8      	; 0xe86 <TothatBox+0x414>
     e7e:	97 ee       	ldi	r25, 0xE7	; 231
     e80:	a9 2e       	mov	r10, r25
     e82:	93 e0       	ldi	r25, 0x03	; 3
     e84:	b9 2e       	mov	r11, r25
     e86:	81 e0       	ldi	r24, 0x01	; 1
     e88:	0e 94 68 09 	call	0x12d0	; 0x12d0 <readObs>
     e8c:	98 2e       	mov	r9, r24
     e8e:	81 e0       	ldi	r24, 0x01	; 1
     e90:	0e 94 74 09 	call	0x12e8	; 0x12e8 <PINtoInt>
     e94:	98 01       	movw	r18, r16
     e96:	21 50       	subi	r18, 0x01	; 1
     e98:	31 09       	sbc	r19, r1
     e9a:	96 e0       	ldi	r25, 0x06	; 6
     e9c:	92 9f       	mul	r25, r18
     e9e:	f0 01       	movw	r30, r0
     ea0:	93 9f       	mul	r25, r19
     ea2:	f0 0d       	add	r31, r0
     ea4:	11 24       	eor	r1, r1
     ea6:	98 ed       	ldi	r25, 0xD8	; 216
     ea8:	9c 9f       	mul	r25, r28
     eaa:	a0 01       	movw	r20, r0
     eac:	9d 9f       	mul	r25, r29
     eae:	50 0d       	add	r21, r0
     eb0:	11 24       	eor	r1, r1
     eb2:	e4 0f       	add	r30, r20
     eb4:	f5 1f       	adc	r31, r21
     eb6:	e5 5b       	subi	r30, 0xB5	; 181
     eb8:	fc 4f       	sbci	r31, 0xFC	; 252
     eba:	94 81       	ldd	r25, Z+4	; 0x04
     ebc:	91 11       	cpse	r25, r1
     ebe:	16 c0       	rjmp	.+44     	; 0xeec <TothatBox+0x47a>
     ec0:	98 12       	cpse	r9, r24
     ec2:	14 c0       	rjmp	.+40     	; 0xeec <TothatBox+0x47a>
     ec4:	ae 01       	movw	r20, r28
     ec6:	b6 01       	movw	r22, r12
     ec8:	c7 01       	movw	r24, r14
     eca:	0e 94 70 04 	call	0x8e0	; 0x8e0 <EcluideanDist>
     ece:	4c 01       	movw	r8, r24
     ed0:	8a 15       	cp	r24, r10
     ed2:	9b 05       	cpc	r25, r11
     ed4:	58 f4       	brcc	.+22     	; 0xeec <TothatBox+0x47a>
     ed6:	83 e0       	ldi	r24, 0x03	; 3
     ed8:	80 93 49 03 	sts	0x0349, r24	; 0x800349 <DirToGo>
     edc:	82 e0       	ldi	r24, 0x02	; 2
     ede:	80 93 4a 03 	sts	0x034A, r24	; 0x80034a <DirToGo+0x1>
     ee2:	8d e5       	ldi	r24, 0x5D	; 93
     ee4:	92 e0       	ldi	r25, 0x02	; 2
     ee6:	0e 94 2a 0a 	call	0x1454	; 0x1454 <printString>
     eea:	54 01       	movw	r10, r8
     eec:	82 e0       	ldi	r24, 0x02	; 2
     eee:	0e 94 68 09 	call	0x12d0	; 0x12d0 <readObs>
     ef2:	98 2e       	mov	r9, r24
     ef4:	82 e0       	ldi	r24, 0x02	; 2
     ef6:	0e 94 74 09 	call	0x12e8	; 0x12e8 <PINtoInt>
     efa:	98 01       	movw	r18, r16
     efc:	2f 5f       	subi	r18, 0xFF	; 255
     efe:	3f 4f       	sbci	r19, 0xFF	; 255
     f00:	96 e0       	ldi	r25, 0x06	; 6
     f02:	92 9f       	mul	r25, r18
     f04:	f0 01       	movw	r30, r0
     f06:	93 9f       	mul	r25, r19
     f08:	f0 0d       	add	r31, r0
     f0a:	11 24       	eor	r1, r1
     f0c:	98 ed       	ldi	r25, 0xD8	; 216
     f0e:	9c 9f       	mul	r25, r28
     f10:	a0 01       	movw	r20, r0
     f12:	9d 9f       	mul	r25, r29
     f14:	50 0d       	add	r21, r0
     f16:	11 24       	eor	r1, r1
     f18:	e4 0f       	add	r30, r20
     f1a:	f5 1f       	adc	r31, r21
     f1c:	e5 5b       	subi	r30, 0xB5	; 181
     f1e:	fc 4f       	sbci	r31, 0xFC	; 252
     f20:	94 81       	ldd	r25, Z+4	; 0x04
     f22:	91 11       	cpse	r25, r1
     f24:	15 c0       	rjmp	.+42     	; 0xf50 <TothatBox+0x4de>
     f26:	98 12       	cpse	r9, r24
     f28:	13 c0       	rjmp	.+38     	; 0xf50 <TothatBox+0x4de>
     f2a:	ae 01       	movw	r20, r28
     f2c:	b6 01       	movw	r22, r12
     f2e:	c7 01       	movw	r24, r14
     f30:	0e 94 70 04 	call	0x8e0	; 0x8e0 <EcluideanDist>
     f34:	4c 01       	movw	r8, r24
     f36:	8a 15       	cp	r24, r10
     f38:	9b 05       	cpc	r25, r11
     f3a:	50 f4       	brcc	.+20     	; 0xf50 <TothatBox+0x4de>
     f3c:	81 e0       	ldi	r24, 0x01	; 1
     f3e:	80 93 49 03 	sts	0x0349, r24	; 0x800349 <DirToGo>
     f42:	80 93 4a 03 	sts	0x034A, r24	; 0x80034a <DirToGo+0x1>
     f46:	81 e6       	ldi	r24, 0x61	; 97
     f48:	92 e0       	ldi	r25, 0x02	; 2
     f4a:	0e 94 2a 0a 	call	0x1454	; 0x1454 <printString>
     f4e:	54 01       	movw	r10, r8
     f50:	80 e0       	ldi	r24, 0x00	; 0
     f52:	0e 94 68 09 	call	0x12d0	; 0x12d0 <readObs>
     f56:	98 2e       	mov	r9, r24
     f58:	80 e0       	ldi	r24, 0x00	; 0
     f5a:	0e 94 74 09 	call	0x12e8	; 0x12e8 <PINtoInt>
     f5e:	ae 01       	movw	r20, r28
     f60:	41 50       	subi	r20, 0x01	; 1
     f62:	51 09       	sbc	r21, r1
     f64:	96 e0       	ldi	r25, 0x06	; 6
     f66:	90 9f       	mul	r25, r16
     f68:	f0 01       	movw	r30, r0
     f6a:	91 9f       	mul	r25, r17
     f6c:	f0 0d       	add	r31, r0
     f6e:	11 24       	eor	r1, r1
     f70:	98 ed       	ldi	r25, 0xD8	; 216
     f72:	94 9f       	mul	r25, r20
     f74:	90 01       	movw	r18, r0
     f76:	95 9f       	mul	r25, r21
     f78:	30 0d       	add	r19, r0
     f7a:	11 24       	eor	r1, r1
     f7c:	e2 0f       	add	r30, r18
     f7e:	f3 1f       	adc	r31, r19
     f80:	e5 5b       	subi	r30, 0xB5	; 181
     f82:	fc 4f       	sbci	r31, 0xFC	; 252
     f84:	94 81       	ldd	r25, Z+4	; 0x04
     f86:	91 11       	cpse	r25, r1
     f88:	e2 c0       	rjmp	.+452    	; 0x114e <TothatBox+0x6dc>
     f8a:	98 12       	cpse	r9, r24
     f8c:	e0 c0       	rjmp	.+448    	; 0x114e <TothatBox+0x6dc>
     f8e:	98 01       	movw	r18, r16
     f90:	b6 01       	movw	r22, r12
     f92:	c7 01       	movw	r24, r14
     f94:	0e 94 70 04 	call	0x8e0	; 0x8e0 <EcluideanDist>
     f98:	8a 15       	cp	r24, r10
     f9a:	9b 05       	cpc	r25, r11
     f9c:	08 f0       	brcs	.+2      	; 0xfa0 <TothatBox+0x52e>
     f9e:	d7 c0       	rjmp	.+430    	; 0x114e <TothatBox+0x6dc>
     fa0:	82 e0       	ldi	r24, 0x02	; 2
     fa2:	cd c0       	rjmp	.+410    	; 0x113e <TothatBox+0x6cc>
     fa4:	80 91 b5 21 	lds	r24, 0x21B5	; 0x8021b5 <headdirect+0x3>
     fa8:	81 11       	cpse	r24, r1
     faa:	d3 c0       	rjmp	.+422    	; 0x1152 <TothatBox+0x6e0>
     fac:	85 e8       	ldi	r24, 0x85	; 133
     fae:	92 e0       	ldi	r25, 0x02	; 2
     fb0:	0e 94 2a 0a 	call	0x1454	; 0x1454 <printString>
     fb4:	83 e0       	ldi	r24, 0x03	; 3
     fb6:	0e 94 68 09 	call	0x12d0	; 0x12d0 <readObs>
     fba:	b8 2e       	mov	r11, r24
     fbc:	83 e0       	ldi	r24, 0x03	; 3
     fbe:	0e 94 74 09 	call	0x12e8	; 0x12e8 <PINtoInt>
     fc2:	98 01       	movw	r18, r16
     fc4:	2f 5f       	subi	r18, 0xFF	; 255
     fc6:	3f 4f       	sbci	r19, 0xFF	; 255
     fc8:	96 e0       	ldi	r25, 0x06	; 6
     fca:	92 9f       	mul	r25, r18
     fcc:	f0 01       	movw	r30, r0
     fce:	93 9f       	mul	r25, r19
     fd0:	f0 0d       	add	r31, r0
     fd2:	11 24       	eor	r1, r1
     fd4:	98 ed       	ldi	r25, 0xD8	; 216
     fd6:	9c 9f       	mul	r25, r28
     fd8:	a0 01       	movw	r20, r0
     fda:	9d 9f       	mul	r25, r29
     fdc:	50 0d       	add	r21, r0
     fde:	11 24       	eor	r1, r1
     fe0:	e4 0f       	add	r30, r20
     fe2:	f5 1f       	adc	r31, r21
     fe4:	e5 5b       	subi	r30, 0xB5	; 181
     fe6:	fc 4f       	sbci	r31, 0xFC	; 252
     fe8:	94 81       	ldd	r25, Z+4	; 0x04
     fea:	91 11       	cpse	r25, r1
     fec:	17 c0       	rjmp	.+46     	; 0x101c <TothatBox+0x5aa>
     fee:	b8 12       	cpse	r11, r24
     ff0:	15 c0       	rjmp	.+42     	; 0x101c <TothatBox+0x5aa>
     ff2:	ae 01       	movw	r20, r28
     ff4:	b6 01       	movw	r22, r12
     ff6:	c7 01       	movw	r24, r14
     ff8:	0e 94 70 04 	call	0x8e0	; 0x8e0 <EcluideanDist>
     ffc:	5c 01       	movw	r10, r24
     ffe:	87 ee       	ldi	r24, 0xE7	; 231
    1000:	a8 16       	cp	r10, r24
    1002:	83 e0       	ldi	r24, 0x03	; 3
    1004:	b8 06       	cpc	r11, r24
    1006:	50 f4       	brcc	.+20     	; 0x101c <TothatBox+0x5aa>
    1008:	90 92 49 03 	sts	0x0349, r9	; 0x800349 <DirToGo>
    100c:	83 e0       	ldi	r24, 0x03	; 3
    100e:	80 93 4a 03 	sts	0x034A, r24	; 0x80034a <DirToGo+0x1>
    1012:	86 e5       	ldi	r24, 0x56	; 86
    1014:	92 e0       	ldi	r25, 0x02	; 2
    1016:	0e 94 2a 0a 	call	0x1454	; 0x1454 <printString>
    101a:	04 c0       	rjmp	.+8      	; 0x1024 <TothatBox+0x5b2>
    101c:	87 ee       	ldi	r24, 0xE7	; 231
    101e:	a8 2e       	mov	r10, r24
    1020:	83 e0       	ldi	r24, 0x03	; 3
    1022:	b8 2e       	mov	r11, r24
    1024:	81 e0       	ldi	r24, 0x01	; 1
    1026:	0e 94 68 09 	call	0x12d0	; 0x12d0 <readObs>
    102a:	98 2e       	mov	r9, r24
    102c:	81 e0       	ldi	r24, 0x01	; 1
    102e:	0e 94 74 09 	call	0x12e8	; 0x12e8 <PINtoInt>
    1032:	ae 01       	movw	r20, r28
    1034:	4f 5f       	subi	r20, 0xFF	; 255
    1036:	5f 4f       	sbci	r21, 0xFF	; 255
    1038:	96 e0       	ldi	r25, 0x06	; 6
    103a:	90 9f       	mul	r25, r16
    103c:	f0 01       	movw	r30, r0
    103e:	91 9f       	mul	r25, r17
    1040:	f0 0d       	add	r31, r0
    1042:	11 24       	eor	r1, r1
    1044:	98 ed       	ldi	r25, 0xD8	; 216
    1046:	94 9f       	mul	r25, r20
    1048:	90 01       	movw	r18, r0
    104a:	95 9f       	mul	r25, r21
    104c:	30 0d       	add	r19, r0
    104e:	11 24       	eor	r1, r1
    1050:	e2 0f       	add	r30, r18
    1052:	f3 1f       	adc	r31, r19
    1054:	e5 5b       	subi	r30, 0xB5	; 181
    1056:	fc 4f       	sbci	r31, 0xFC	; 252
    1058:	94 81       	ldd	r25, Z+4	; 0x04
    105a:	91 11       	cpse	r25, r1
    105c:	15 c0       	rjmp	.+42     	; 0x1088 <TothatBox+0x616>
    105e:	98 12       	cpse	r9, r24
    1060:	13 c0       	rjmp	.+38     	; 0x1088 <TothatBox+0x616>
    1062:	98 01       	movw	r18, r16
    1064:	b6 01       	movw	r22, r12
    1066:	c7 01       	movw	r24, r14
    1068:	0e 94 70 04 	call	0x8e0	; 0x8e0 <EcluideanDist>
    106c:	4c 01       	movw	r8, r24
    106e:	8a 15       	cp	r24, r10
    1070:	9b 05       	cpc	r25, r11
    1072:	50 f4       	brcc	.+20     	; 0x1088 <TothatBox+0x616>
    1074:	10 92 49 03 	sts	0x0349, r1	; 0x800349 <DirToGo>
    1078:	82 e0       	ldi	r24, 0x02	; 2
    107a:	80 93 4a 03 	sts	0x034A, r24	; 0x80034a <DirToGo+0x1>
    107e:	8d e5       	ldi	r24, 0x5D	; 93
    1080:	92 e0       	ldi	r25, 0x02	; 2
    1082:	0e 94 2a 0a 	call	0x1454	; 0x1454 <printString>
    1086:	54 01       	movw	r10, r8
    1088:	82 e0       	ldi	r24, 0x02	; 2
    108a:	0e 94 68 09 	call	0x12d0	; 0x12d0 <readObs>
    108e:	98 2e       	mov	r9, r24
    1090:	82 e0       	ldi	r24, 0x02	; 2
    1092:	0e 94 74 09 	call	0x12e8	; 0x12e8 <PINtoInt>
    1096:	ae 01       	movw	r20, r28
    1098:	41 50       	subi	r20, 0x01	; 1
    109a:	51 09       	sbc	r21, r1
    109c:	96 e0       	ldi	r25, 0x06	; 6
    109e:	90 9f       	mul	r25, r16
    10a0:	f0 01       	movw	r30, r0
    10a2:	91 9f       	mul	r25, r17
    10a4:	f0 0d       	add	r31, r0
    10a6:	11 24       	eor	r1, r1
    10a8:	98 ed       	ldi	r25, 0xD8	; 216
    10aa:	94 9f       	mul	r25, r20
    10ac:	90 01       	movw	r18, r0
    10ae:	95 9f       	mul	r25, r21
    10b0:	30 0d       	add	r19, r0
    10b2:	11 24       	eor	r1, r1
    10b4:	e2 0f       	add	r30, r18
    10b6:	f3 1f       	adc	r31, r19
    10b8:	e5 5b       	subi	r30, 0xB5	; 181
    10ba:	fc 4f       	sbci	r31, 0xFC	; 252
    10bc:	94 81       	ldd	r25, Z+4	; 0x04
    10be:	91 11       	cpse	r25, r1
    10c0:	16 c0       	rjmp	.+44     	; 0x10ee <TothatBox+0x67c>
    10c2:	98 12       	cpse	r9, r24
    10c4:	14 c0       	rjmp	.+40     	; 0x10ee <TothatBox+0x67c>
    10c6:	98 01       	movw	r18, r16
    10c8:	b6 01       	movw	r22, r12
    10ca:	c7 01       	movw	r24, r14
    10cc:	0e 94 70 04 	call	0x8e0	; 0x8e0 <EcluideanDist>
    10d0:	4c 01       	movw	r8, r24
    10d2:	8a 15       	cp	r24, r10
    10d4:	9b 05       	cpc	r25, r11
    10d6:	58 f4       	brcc	.+22     	; 0x10ee <TothatBox+0x67c>
    10d8:	82 e0       	ldi	r24, 0x02	; 2
    10da:	80 93 49 03 	sts	0x0349, r24	; 0x800349 <DirToGo>
    10de:	81 e0       	ldi	r24, 0x01	; 1
    10e0:	80 93 4a 03 	sts	0x034A, r24	; 0x80034a <DirToGo+0x1>
    10e4:	81 e6       	ldi	r24, 0x61	; 97
    10e6:	92 e0       	ldi	r25, 0x02	; 2
    10e8:	0e 94 2a 0a 	call	0x1454	; 0x1454 <printString>
    10ec:	54 01       	movw	r10, r8
    10ee:	80 e0       	ldi	r24, 0x00	; 0
    10f0:	0e 94 68 09 	call	0x12d0	; 0x12d0 <readObs>
    10f4:	98 2e       	mov	r9, r24
    10f6:	80 e0       	ldi	r24, 0x00	; 0
    10f8:	0e 94 74 09 	call	0x12e8	; 0x12e8 <PINtoInt>
    10fc:	98 01       	movw	r18, r16
    10fe:	21 50       	subi	r18, 0x01	; 1
    1100:	31 09       	sbc	r19, r1
    1102:	96 e0       	ldi	r25, 0x06	; 6
    1104:	92 9f       	mul	r25, r18
    1106:	f0 01       	movw	r30, r0
    1108:	93 9f       	mul	r25, r19
    110a:	f0 0d       	add	r31, r0
    110c:	11 24       	eor	r1, r1
    110e:	98 ed       	ldi	r25, 0xD8	; 216
    1110:	9c 9f       	mul	r25, r28
    1112:	a0 01       	movw	r20, r0
    1114:	9d 9f       	mul	r25, r29
    1116:	50 0d       	add	r21, r0
    1118:	11 24       	eor	r1, r1
    111a:	e4 0f       	add	r30, r20
    111c:	f5 1f       	adc	r31, r21
    111e:	e5 5b       	subi	r30, 0xB5	; 181
    1120:	fc 4f       	sbci	r31, 0xFC	; 252
    1122:	94 81       	ldd	r25, Z+4	; 0x04
    1124:	91 11       	cpse	r25, r1
    1126:	13 c0       	rjmp	.+38     	; 0x114e <TothatBox+0x6dc>
    1128:	98 12       	cpse	r9, r24
    112a:	11 c0       	rjmp	.+34     	; 0x114e <TothatBox+0x6dc>
    112c:	ae 01       	movw	r20, r28
    112e:	b6 01       	movw	r22, r12
    1130:	c7 01       	movw	r24, r14
    1132:	0e 94 70 04 	call	0x8e0	; 0x8e0 <EcluideanDist>
    1136:	8a 15       	cp	r24, r10
    1138:	9b 05       	cpc	r25, r11
    113a:	48 f4       	brcc	.+18     	; 0x114e <TothatBox+0x6dc>
    113c:	83 e0       	ldi	r24, 0x03	; 3
    113e:	80 93 49 03 	sts	0x0349, r24	; 0x800349 <DirToGo>
    1142:	10 92 4a 03 	sts	0x034A, r1	; 0x80034a <DirToGo+0x1>
    1146:	85 e7       	ldi	r24, 0x75	; 117
    1148:	92 e0       	ldi	r25, 0x02	; 2
    114a:	0e 94 2a 0a 	call	0x1454	; 0x1454 <printString>
    114e:	80 e0       	ldi	r24, 0x00	; 0
    1150:	08 c0       	rjmp	.+16     	; 0x1162 <TothatBox+0x6f0>
    1152:	84 e0       	ldi	r24, 0x04	; 4
    1154:	80 93 49 03 	sts	0x0349, r24	; 0x800349 <DirToGo>
    1158:	83 e0       	ldi	r24, 0x03	; 3
    115a:	80 93 4a 03 	sts	0x034A, r24	; 0x80034a <DirToGo+0x1>
    115e:	f7 cf       	rjmp	.-18     	; 0x114e <TothatBox+0x6dc>
    1160:	81 e0       	ldi	r24, 0x01	; 1
    1162:	df 91       	pop	r29
    1164:	cf 91       	pop	r28
    1166:	1f 91       	pop	r17
    1168:	0f 91       	pop	r16
    116a:	ff 90       	pop	r15
    116c:	ef 90       	pop	r14
    116e:	df 90       	pop	r13
    1170:	cf 90       	pop	r12
    1172:	bf 90       	pop	r11
    1174:	af 90       	pop	r10
    1176:	9f 90       	pop	r9
    1178:	8f 90       	pop	r8
    117a:	08 95       	ret

0000117c <FindTheDest>:
    117c:	ef 92       	push	r14
    117e:	ff 92       	push	r15
    1180:	0f 93       	push	r16
    1182:	1f 93       	push	r17
    1184:	cf 93       	push	r28
    1186:	df 93       	push	r29
    1188:	8c 01       	movw	r16, r24
    118a:	7b 01       	movw	r14, r22
    118c:	8e ea       	ldi	r24, 0xAE	; 174
    118e:	92 e0       	ldi	r25, 0x02	; 2
    1190:	0e 94 2a 0a 	call	0x1454	; 0x1454 <printString>
    1194:	b7 01       	movw	r22, r14
    1196:	c8 01       	movw	r24, r16
    1198:	0e 94 b6 04 	call	0x96c	; 0x96c <CheckMaze>
    119c:	ec 01       	movw	r28, r24
    119e:	8d eb       	ldi	r24, 0xBD	; 189
    11a0:	92 e0       	ldi	r25, 0x02	; 2
    11a2:	0e 94 2a 0a 	call	0x1454	; 0x1454 <printString>
    11a6:	88 81       	ld	r24, Y
    11a8:	99 81       	ldd	r25, Y+1	; 0x01
    11aa:	0e 94 82 0a 	call	0x1504	; 0x1504 <printWord>
    11ae:	8a e7       	ldi	r24, 0x7A	; 122
    11b0:	92 e0       	ldi	r25, 0x02	; 2
    11b2:	0e 94 2a 0a 	call	0x1454	; 0x1454 <printString>
    11b6:	8a 81       	ldd	r24, Y+2	; 0x02
    11b8:	9b 81       	ldd	r25, Y+3	; 0x03
    11ba:	0e 94 82 0a 	call	0x1504	; 0x1504 <printWord>
    11be:	88 e3       	ldi	r24, 0x38	; 56
    11c0:	92 e0       	ldi	r25, 0x02	; 2
    11c2:	0e 94 2a 0a 	call	0x1454	; 0x1454 <printString>
    11c6:	48 81       	ld	r20, Y
    11c8:	59 81       	ldd	r21, Y+1	; 0x01
    11ca:	2a 81       	ldd	r18, Y+2	; 0x02
    11cc:	3b 81       	ldd	r19, Y+3	; 0x03
    11ce:	41 15       	cp	r20, r1
    11d0:	51 05       	cpc	r21, r1
    11d2:	19 f4       	brne	.+6      	; 0x11da <FindTheDest+0x5e>
    11d4:	21 15       	cp	r18, r1
    11d6:	31 05       	cpc	r19, r1
    11d8:	49 f0       	breq	.+18     	; 0x11ec <FindTheDest+0x70>
    11da:	b7 01       	movw	r22, r14
    11dc:	c8 01       	movw	r24, r16
    11de:	0e 94 39 05 	call	0xa72	; 0xa72 <TothatBox>
    11e2:	91 e0       	ldi	r25, 0x01	; 1
    11e4:	81 11       	cpse	r24, r1
    11e6:	03 c0       	rjmp	.+6      	; 0x11ee <FindTheDest+0x72>
    11e8:	90 e0       	ldi	r25, 0x00	; 0
    11ea:	01 c0       	rjmp	.+2      	; 0x11ee <FindTheDest+0x72>
    11ec:	92 e0       	ldi	r25, 0x02	; 2
    11ee:	89 2f       	mov	r24, r25
    11f0:	df 91       	pop	r29
    11f2:	cf 91       	pop	r28
    11f4:	1f 91       	pop	r17
    11f6:	0f 91       	pop	r16
    11f8:	ff 90       	pop	r15
    11fa:	ef 90       	pop	r14
    11fc:	08 95       	ret

000011fe <BackToHome>:
    11fe:	22 e1       	ldi	r18, 0x12	; 18
    1200:	30 e0       	ldi	r19, 0x00	; 0
    1202:	42 e1       	ldi	r20, 0x12	; 18
    1204:	50 e0       	ldi	r21, 0x00	; 0
    1206:	0e 94 39 05 	call	0xa72	; 0xa72 <TothatBox>
    120a:	91 e0       	ldi	r25, 0x01	; 1
    120c:	81 11       	cpse	r24, r1
    120e:	01 c0       	rjmp	.+2      	; 0x1212 <BackToHome+0x14>
    1210:	90 e0       	ldi	r25, 0x00	; 0
    1212:	89 2f       	mov	r24, r25
    1214:	08 95       	ret

00001216 <stops>:
    1216:	2f ef       	ldi	r18, 0xFF	; 255
    1218:	83 ed       	ldi	r24, 0xD3	; 211
    121a:	90 e3       	ldi	r25, 0x30	; 48
    121c:	21 50       	subi	r18, 0x01	; 1
    121e:	80 40       	sbci	r24, 0x00	; 0
    1220:	90 40       	sbci	r25, 0x00	; 0
    1222:	e1 f7       	brne	.-8      	; 0x121c <stops+0x6>
    1224:	00 c0       	rjmp	.+0      	; 0x1226 <stops+0x10>
    1226:	00 00       	nop
    1228:	89 ec       	ldi	r24, 0xC9	; 201
    122a:	92 e0       	ldi	r25, 0x02	; 2
    122c:	0e 94 2a 0a 	call	0x1454	; 0x1454 <printString>
    1230:	81 e0       	ldi	r24, 0x01	; 1
    1232:	80 93 af 21 	sts	0x21AF, r24	; 0x8021af <isExecute>
    1236:	08 95       	ret

00001238 <turnright>:
    1238:	88 ed       	ldi	r24, 0xD8	; 216
    123a:	92 e0       	ldi	r25, 0x02	; 2
    123c:	0e 94 2a 0a 	call	0x1454	; 0x1454 <printString>
    1240:	80 b1       	in	r24, 0x00	; 0
    1242:	80 b9       	out	0x00, r24	; 0
    1244:	02 9a       	sbi	0x00, 2	; 0
    1246:	6a ea       	ldi	r22, 0xAA	; 170
    1248:	88 e0       	ldi	r24, 0x08	; 8
    124a:	0e 94 2f 01 	call	0x25e	; 0x25e <analogWrite>
    124e:	60 e0       	ldi	r22, 0x00	; 0
    1250:	80 e1       	ldi	r24, 0x10	; 16
    1252:	0e 94 2f 01 	call	0x25e	; 0x25e <analogWrite>
    1256:	0c 94 0b 09 	jmp	0x1216	; 0x1216 <stops>

0000125a <turnleft>:
    125a:	86 ee       	ldi	r24, 0xE6	; 230
    125c:	92 e0       	ldi	r25, 0x02	; 2
    125e:	0e 94 2a 0a 	call	0x1454	; 0x1454 <printString>
    1262:	80 b1       	in	r24, 0x00	; 0
    1264:	80 b9       	out	0x00, r24	; 0
    1266:	00 9a       	sbi	0x00, 0	; 0
    1268:	6a ea       	ldi	r22, 0xAA	; 170
    126a:	80 e1       	ldi	r24, 0x10	; 16
    126c:	0e 94 2f 01 	call	0x25e	; 0x25e <analogWrite>
    1270:	60 e0       	ldi	r22, 0x00	; 0
    1272:	88 e0       	ldi	r24, 0x08	; 8
    1274:	0e 94 2f 01 	call	0x25e	; 0x25e <analogWrite>
    1278:	0c 94 0b 09 	jmp	0x1216	; 0x1216 <stops>

0000127c <forward>:
    127c:	84 ef       	ldi	r24, 0xF4	; 244
    127e:	92 e0       	ldi	r25, 0x02	; 2
    1280:	0e 94 2a 0a 	call	0x1454	; 0x1454 <printString>
    1284:	80 b1       	in	r24, 0x00	; 0
    1286:	80 b9       	out	0x00, r24	; 0
    1288:	80 b1       	in	r24, 0x00	; 0
    128a:	85 60       	ori	r24, 0x05	; 5
    128c:	80 b9       	out	0x00, r24	; 0
    128e:	62 e8       	ldi	r22, 0x82	; 130
    1290:	88 e0       	ldi	r24, 0x08	; 8
    1292:	0e 94 2f 01 	call	0x25e	; 0x25e <analogWrite>
    1296:	62 e8       	ldi	r22, 0x82	; 130
    1298:	80 e1       	ldi	r24, 0x10	; 16
    129a:	0e 94 2f 01 	call	0x25e	; 0x25e <analogWrite>
    129e:	0c 94 0b 09 	jmp	0x1216	; 0x1216 <stops>

000012a2 <bacrward>:
    12a2:	8f ef       	ldi	r24, 0xFF	; 255
    12a4:	92 e0       	ldi	r25, 0x02	; 2
    12a6:	0e 94 2a 0a 	call	0x1454	; 0x1454 <printString>
    12aa:	80 b1       	in	r24, 0x00	; 0
    12ac:	80 b9       	out	0x00, r24	; 0
    12ae:	80 b1       	in	r24, 0x00	; 0
    12b0:	8a 60       	ori	r24, 0x0A	; 10
    12b2:	80 b9       	out	0x00, r24	; 0
    12b4:	62 e8       	ldi	r22, 0x82	; 130
    12b6:	88 e0       	ldi	r24, 0x08	; 8
    12b8:	0e 94 2f 01 	call	0x25e	; 0x25e <analogWrite>
    12bc:	62 e8       	ldi	r22, 0x82	; 130
    12be:	80 e1       	ldi	r24, 0x10	; 16
    12c0:	0e 94 2f 01 	call	0x25e	; 0x25e <analogWrite>
    12c4:	0c 94 0b 09 	jmp	0x1216	; 0x1216 <stops>

000012c8 <Realstops>:
    12c8:	80 b1       	in	r24, 0x00	; 0
    12ca:	80 b1       	in	r24, 0x00	; 0
    12cc:	80 b9       	out	0x00, r24	; 0
    12ce:	08 95       	ret

000012d0 <readObs>:
    12d0:	46 b1       	in	r20, 0x06	; 6
    12d2:	21 e0       	ldi	r18, 0x01	; 1
    12d4:	30 e0       	ldi	r19, 0x00	; 0
    12d6:	b9 01       	movw	r22, r18
    12d8:	02 c0       	rjmp	.+4      	; 0x12de <readObs+0xe>
    12da:	66 0f       	add	r22, r22
    12dc:	77 1f       	adc	r23, r23
    12de:	8a 95       	dec	r24
    12e0:	e2 f7       	brpl	.-8      	; 0x12da <readObs+0xa>
    12e2:	cb 01       	movw	r24, r22
    12e4:	84 23       	and	r24, r20
    12e6:	08 95       	ret

000012e8 <PINtoInt>:
    12e8:	91 e0       	ldi	r25, 0x01	; 1
    12ea:	01 c0       	rjmp	.+2      	; 0x12ee <PINtoInt+0x6>
    12ec:	99 0f       	add	r25, r25
    12ee:	8a 95       	dec	r24
    12f0:	ea f7       	brpl	.-6      	; 0x12ec <PINtoInt+0x4>
    12f2:	89 2f       	mov	r24, r25
    12f4:	08 95       	ret

000012f6 <WhereYouGo>:
    12f6:	80 91 af 21 	lds	r24, 0x21AF	; 0x8021af <isExecute>
    12fa:	81 11       	cpse	r24, r1
    12fc:	7b c0       	rjmp	.+246    	; 0x13f4 <WhereYouGo+0xfe>
    12fe:	8b e0       	ldi	r24, 0x0B	; 11
    1300:	93 e0       	ldi	r25, 0x03	; 3
    1302:	0e 94 2a 0a 	call	0x1454	; 0x1454 <printString>
    1306:	80 91 49 03 	lds	r24, 0x0349	; 0x800349 <DirToGo>
    130a:	81 11       	cpse	r24, r1
    130c:	0f c0       	rjmp	.+30     	; 0x132c <WhereYouGo+0x36>
    130e:	10 92 b2 21 	sts	0x21B2, r1	; 0x8021b2 <headdirect>
    1312:	81 e0       	ldi	r24, 0x01	; 1
    1314:	80 93 b3 21 	sts	0x21B3, r24	; 0x8021b3 <headdirect+0x1>
    1318:	80 93 b4 21 	sts	0x21B4, r24	; 0x8021b4 <headdirect+0x2>
    131c:	80 93 b5 21 	sts	0x21B5, r24	; 0x8021b5 <headdirect+0x3>
    1320:	80 91 42 03 	lds	r24, 0x0342	; 0x800342 <CurrentPos>
    1324:	90 91 43 03 	lds	r25, 0x0343	; 0x800343 <CurrentPos+0x1>
    1328:	01 96       	adiw	r24, 0x01	; 1
    132a:	20 c0       	rjmp	.+64     	; 0x136c <WhereYouGo+0x76>
    132c:	81 30       	cpi	r24, 0x01	; 1
    132e:	71 f4       	brne	.+28     	; 0x134c <WhereYouGo+0x56>
    1330:	80 93 b2 21 	sts	0x21B2, r24	; 0x8021b2 <headdirect>
    1334:	10 92 b3 21 	sts	0x21B3, r1	; 0x8021b3 <headdirect+0x1>
    1338:	80 93 b4 21 	sts	0x21B4, r24	; 0x8021b4 <headdirect+0x2>
    133c:	80 93 b5 21 	sts	0x21B5, r24	; 0x8021b5 <headdirect+0x3>
    1340:	80 91 44 03 	lds	r24, 0x0344	; 0x800344 <CurrentPos+0x2>
    1344:	90 91 45 03 	lds	r25, 0x0345	; 0x800345 <CurrentPos+0x3>
    1348:	01 96       	adiw	r24, 0x01	; 1
    134a:	25 c0       	rjmp	.+74     	; 0x1396 <WhereYouGo+0xa0>
    134c:	82 30       	cpi	r24, 0x02	; 2
    134e:	99 f4       	brne	.+38     	; 0x1376 <WhereYouGo+0x80>
    1350:	81 e0       	ldi	r24, 0x01	; 1
    1352:	80 93 b2 21 	sts	0x21B2, r24	; 0x8021b2 <headdirect>
    1356:	80 93 b3 21 	sts	0x21B3, r24	; 0x8021b3 <headdirect+0x1>
    135a:	10 92 b4 21 	sts	0x21B4, r1	; 0x8021b4 <headdirect+0x2>
    135e:	80 93 b5 21 	sts	0x21B5, r24	; 0x8021b5 <headdirect+0x3>
    1362:	80 91 42 03 	lds	r24, 0x0342	; 0x800342 <CurrentPos>
    1366:	90 91 43 03 	lds	r25, 0x0343	; 0x800343 <CurrentPos+0x1>
    136a:	01 97       	sbiw	r24, 0x01	; 1
    136c:	90 93 43 03 	sts	0x0343, r25	; 0x800343 <CurrentPos+0x1>
    1370:	80 93 42 03 	sts	0x0342, r24	; 0x800342 <CurrentPos>
    1374:	1e c0       	rjmp	.+60     	; 0x13b2 <WhereYouGo+0xbc>
    1376:	83 30       	cpi	r24, 0x03	; 3
    1378:	99 f4       	brne	.+38     	; 0x13a0 <WhereYouGo+0xaa>
    137a:	81 e0       	ldi	r24, 0x01	; 1
    137c:	80 93 b2 21 	sts	0x21B2, r24	; 0x8021b2 <headdirect>
    1380:	80 93 b3 21 	sts	0x21B3, r24	; 0x8021b3 <headdirect+0x1>
    1384:	80 93 b4 21 	sts	0x21B4, r24	; 0x8021b4 <headdirect+0x2>
    1388:	10 92 b5 21 	sts	0x21B5, r1	; 0x8021b5 <headdirect+0x3>
    138c:	80 91 44 03 	lds	r24, 0x0344	; 0x800344 <CurrentPos+0x2>
    1390:	90 91 45 03 	lds	r25, 0x0345	; 0x800345 <CurrentPos+0x3>
    1394:	01 97       	sbiw	r24, 0x01	; 1
    1396:	90 93 45 03 	sts	0x0345, r25	; 0x800345 <CurrentPos+0x3>
    139a:	80 93 44 03 	sts	0x0344, r24	; 0x800344 <CurrentPos+0x2>
    139e:	09 c0       	rjmp	.+18     	; 0x13b2 <WhereYouGo+0xbc>
    13a0:	81 e0       	ldi	r24, 0x01	; 1
    13a2:	80 93 b2 21 	sts	0x21B2, r24	; 0x8021b2 <headdirect>
    13a6:	80 93 b3 21 	sts	0x21B3, r24	; 0x8021b3 <headdirect+0x1>
    13aa:	80 93 b4 21 	sts	0x21B4, r24	; 0x8021b4 <headdirect+0x2>
    13ae:	80 93 b5 21 	sts	0x21B5, r24	; 0x8021b5 <headdirect+0x3>
    13b2:	80 91 4a 03 	lds	r24, 0x034A	; 0x80034a <DirToGo+0x1>
    13b6:	81 11       	cpse	r24, r1
    13b8:	02 c0       	rjmp	.+4      	; 0x13be <WhereYouGo+0xc8>
    13ba:	0e 94 3e 09 	call	0x127c	; 0x127c <forward>
    13be:	80 91 4a 03 	lds	r24, 0x034A	; 0x80034a <DirToGo+0x1>
    13c2:	82 30       	cpi	r24, 0x02	; 2
    13c4:	11 f4       	brne	.+4      	; 0x13ca <WhereYouGo+0xd4>
    13c6:	0e 94 2d 09 	call	0x125a	; 0x125a <turnleft>
    13ca:	80 91 4a 03 	lds	r24, 0x034A	; 0x80034a <DirToGo+0x1>
    13ce:	81 30       	cpi	r24, 0x01	; 1
    13d0:	11 f4       	brne	.+4      	; 0x13d6 <WhereYouGo+0xe0>
    13d2:	0e 94 1c 09 	call	0x1238	; 0x1238 <turnright>
    13d6:	80 91 4a 03 	lds	r24, 0x034A	; 0x80034a <DirToGo+0x1>
    13da:	83 30       	cpi	r24, 0x03	; 3
    13dc:	11 f4       	brne	.+4      	; 0x13e2 <WhereYouGo+0xec>
    13de:	0e 94 51 09 	call	0x12a2	; 0x12a2 <bacrward>
    13e2:	80 91 4a 03 	lds	r24, 0x034A	; 0x80034a <DirToGo+0x1>
    13e6:	84 30       	cpi	r24, 0x04	; 4
    13e8:	11 f4       	brne	.+4      	; 0x13ee <WhereYouGo+0xf8>
    13ea:	0e 94 64 09 	call	0x12c8	; 0x12c8 <Realstops>
    13ee:	84 e0       	ldi	r24, 0x04	; 4
    13f0:	80 93 4a 03 	sts	0x034A, r24	; 0x80034a <DirToGo+0x1>
    13f4:	81 e0       	ldi	r24, 0x01	; 1
    13f6:	08 95       	ret

000013f8 <MotorPinInit>:
    13f8:	81 b1       	in	r24, 0x01	; 1
    13fa:	11 b8       	out	0x01, r1	; 1
    13fc:	81 b1       	in	r24, 0x01	; 1
    13fe:	8f 60       	ori	r24, 0x0F	; 15
    1400:	81 b9       	out	0x01, r24	; 1
    1402:	08 95       	ret

00001404 <ObstacleInit>:
    1404:	87 b1       	in	r24, 0x07	; 7
    1406:	87 b1       	in	r24, 0x07	; 7
    1408:	87 b9       	out	0x07, r24	; 7
    140a:	88 b1       	in	r24, 0x08	; 8
    140c:	8f 60       	ori	r24, 0x0F	; 15
    140e:	88 b9       	out	0x08, r24	; 8
    1410:	08 95       	ret

00001412 <ExtInit>:
    1412:	3e 9a       	sbi	0x07, 6	; 7
    1414:	08 95       	ret

00001416 <initUSART>:
    1416:	10 92 c5 00 	sts	0x00C5, r1	; 0x8000c5 <__TEXT_REGION_LENGTH__+0x7000c5>
    141a:	87 e6       	ldi	r24, 0x67	; 103
    141c:	80 93 c4 00 	sts	0x00C4, r24	; 0x8000c4 <__TEXT_REGION_LENGTH__+0x7000c4>
    1420:	e0 ec       	ldi	r30, 0xC0	; 192
    1422:	f0 e0       	ldi	r31, 0x00	; 0
    1424:	80 81       	ld	r24, Z
    1426:	8d 7f       	andi	r24, 0xFD	; 253
    1428:	80 83       	st	Z, r24
    142a:	88 e1       	ldi	r24, 0x18	; 24
    142c:	80 93 c1 00 	sts	0x00C1, r24	; 0x8000c1 <__TEXT_REGION_LENGTH__+0x7000c1>
    1430:	86 e0       	ldi	r24, 0x06	; 6
    1432:	80 93 c2 00 	sts	0x00C2, r24	; 0x8000c2 <__TEXT_REGION_LENGTH__+0x7000c2>
    1436:	08 95       	ret

00001438 <transmitByte>:
    1438:	90 91 c0 00 	lds	r25, 0x00C0	; 0x8000c0 <__TEXT_REGION_LENGTH__+0x7000c0>
    143c:	95 ff       	sbrs	r25, 5
    143e:	fc cf       	rjmp	.-8      	; 0x1438 <transmitByte>
    1440:	80 93 c6 00 	sts	0x00C6, r24	; 0x8000c6 <__TEXT_REGION_LENGTH__+0x7000c6>
    1444:	08 95       	ret

00001446 <receiveByte>:
    1446:	80 91 c0 00 	lds	r24, 0x00C0	; 0x8000c0 <__TEXT_REGION_LENGTH__+0x7000c0>
    144a:	87 ff       	sbrs	r24, 7
    144c:	fc cf       	rjmp	.-8      	; 0x1446 <receiveByte>
    144e:	80 91 c6 00 	lds	r24, 0x00C6	; 0x8000c6 <__TEXT_REGION_LENGTH__+0x7000c6>
    1452:	08 95       	ret

00001454 <printString>:
    1454:	0f 93       	push	r16
    1456:	1f 93       	push	r17
    1458:	cf 93       	push	r28
    145a:	8c 01       	movw	r16, r24
    145c:	c0 e0       	ldi	r28, 0x00	; 0
    145e:	f8 01       	movw	r30, r16
    1460:	ec 0f       	add	r30, r28
    1462:	f1 1d       	adc	r31, r1
    1464:	80 81       	ld	r24, Z
    1466:	88 23       	and	r24, r24
    1468:	21 f0       	breq	.+8      	; 0x1472 <printString+0x1e>
    146a:	0e 94 1c 0a 	call	0x1438	; 0x1438 <transmitByte>
    146e:	cf 5f       	subi	r28, 0xFF	; 255
    1470:	f6 cf       	rjmp	.-20     	; 0x145e <printString+0xa>
    1472:	cf 91       	pop	r28
    1474:	1f 91       	pop	r17
    1476:	0f 91       	pop	r16
    1478:	08 95       	ret

0000147a <readString>:
    147a:	cf 92       	push	r12
    147c:	df 92       	push	r13
    147e:	ef 92       	push	r14
    1480:	ff 92       	push	r15
    1482:	0f 93       	push	r16
    1484:	1f 93       	push	r17
    1486:	cf 93       	push	r28
    1488:	df 93       	push	r29
    148a:	6c 01       	movw	r12, r24
    148c:	f1 2c       	mov	r15, r1
    148e:	06 2f       	mov	r16, r22
    1490:	10 e0       	ldi	r17, 0x00	; 0
    1492:	01 50       	subi	r16, 0x01	; 1
    1494:	11 09       	sbc	r17, r1
    1496:	cf 2d       	mov	r28, r15
    1498:	d0 e0       	ldi	r29, 0x00	; 0
    149a:	c0 17       	cp	r28, r16
    149c:	d1 07       	cpc	r29, r17
    149e:	44 f4       	brge	.+16     	; 0x14b0 <readString+0x36>
    14a0:	0e 94 23 0a 	call	0x1446	; 0x1446 <receiveByte>
    14a4:	e8 2e       	mov	r14, r24
    14a6:	0e 94 1c 0a 	call	0x1438	; 0x1438 <transmitByte>
    14aa:	8d e0       	ldi	r24, 0x0D	; 13
    14ac:	e8 12       	cpse	r14, r24
    14ae:	0c c0       	rjmp	.+24     	; 0x14c8 <readString+0x4e>
    14b0:	cc 0d       	add	r28, r12
    14b2:	dd 1d       	adc	r29, r13
    14b4:	18 82       	st	Y, r1
    14b6:	df 91       	pop	r29
    14b8:	cf 91       	pop	r28
    14ba:	1f 91       	pop	r17
    14bc:	0f 91       	pop	r16
    14be:	ff 90       	pop	r15
    14c0:	ef 90       	pop	r14
    14c2:	df 90       	pop	r13
    14c4:	cf 90       	pop	r12
    14c6:	08 95       	ret
    14c8:	cc 0d       	add	r28, r12
    14ca:	dd 1d       	adc	r29, r13
    14cc:	e8 82       	st	Y, r14
    14ce:	f3 94       	inc	r15
    14d0:	e2 cf       	rjmp	.-60     	; 0x1496 <readString+0x1c>

000014d2 <printByte>:
    14d2:	cf 93       	push	r28
    14d4:	c8 2f       	mov	r28, r24
    14d6:	64 e6       	ldi	r22, 0x64	; 100
    14d8:	0e 94 45 0b 	call	0x168a	; 0x168a <__udivmodqi4>
    14dc:	80 5d       	subi	r24, 0xD0	; 208
    14de:	0e 94 1c 0a 	call	0x1438	; 0x1438 <transmitByte>
    14e2:	2a e0       	ldi	r18, 0x0A	; 10
    14e4:	8c 2f       	mov	r24, r28
    14e6:	62 2f       	mov	r22, r18
    14e8:	0e 94 45 0b 	call	0x168a	; 0x168a <__udivmodqi4>
    14ec:	c9 2f       	mov	r28, r25
    14ee:	0e 94 45 0b 	call	0x168a	; 0x168a <__udivmodqi4>
    14f2:	80 e3       	ldi	r24, 0x30	; 48
    14f4:	89 0f       	add	r24, r25
    14f6:	0e 94 1c 0a 	call	0x1438	; 0x1438 <transmitByte>
    14fa:	80 e3       	ldi	r24, 0x30	; 48
    14fc:	8c 0f       	add	r24, r28
    14fe:	cf 91       	pop	r28
    1500:	0c 94 1c 0a 	jmp	0x1438	; 0x1438 <transmitByte>

00001504 <printWord>:
    1504:	0f 93       	push	r16
    1506:	1f 93       	push	r17
    1508:	cf 93       	push	r28
    150a:	df 93       	push	r29
    150c:	8c 01       	movw	r16, r24
    150e:	60 e1       	ldi	r22, 0x10	; 16
    1510:	77 e2       	ldi	r23, 0x27	; 39
    1512:	0e 94 51 0b 	call	0x16a2	; 0x16a2 <__udivmodhi4>
    1516:	80 e3       	ldi	r24, 0x30	; 48
    1518:	86 0f       	add	r24, r22
    151a:	0e 94 1c 0a 	call	0x1438	; 0x1438 <transmitByte>
    151e:	c8 01       	movw	r24, r16
    1520:	68 ee       	ldi	r22, 0xE8	; 232
    1522:	73 e0       	ldi	r23, 0x03	; 3
    1524:	0e 94 51 0b 	call	0x16a2	; 0x16a2 <__udivmodhi4>
    1528:	cb 01       	movw	r24, r22
    152a:	ca e0       	ldi	r28, 0x0A	; 10
    152c:	d0 e0       	ldi	r29, 0x00	; 0
    152e:	be 01       	movw	r22, r28
    1530:	0e 94 51 0b 	call	0x16a2	; 0x16a2 <__udivmodhi4>
    1534:	80 5d       	subi	r24, 0xD0	; 208
    1536:	0e 94 1c 0a 	call	0x1438	; 0x1438 <transmitByte>
    153a:	c8 01       	movw	r24, r16
    153c:	64 e6       	ldi	r22, 0x64	; 100
    153e:	70 e0       	ldi	r23, 0x00	; 0
    1540:	0e 94 51 0b 	call	0x16a2	; 0x16a2 <__udivmodhi4>
    1544:	cb 01       	movw	r24, r22
    1546:	be 01       	movw	r22, r28
    1548:	0e 94 51 0b 	call	0x16a2	; 0x16a2 <__udivmodhi4>
    154c:	80 5d       	subi	r24, 0xD0	; 208
    154e:	0e 94 1c 0a 	call	0x1438	; 0x1438 <transmitByte>
    1552:	c8 01       	movw	r24, r16
    1554:	be 01       	movw	r22, r28
    1556:	0e 94 51 0b 	call	0x16a2	; 0x16a2 <__udivmodhi4>
    155a:	18 2f       	mov	r17, r24
    155c:	cb 01       	movw	r24, r22
    155e:	be 01       	movw	r22, r28
    1560:	0e 94 51 0b 	call	0x16a2	; 0x16a2 <__udivmodhi4>
    1564:	80 5d       	subi	r24, 0xD0	; 208
    1566:	0e 94 1c 0a 	call	0x1438	; 0x1438 <transmitByte>
    156a:	80 e3       	ldi	r24, 0x30	; 48
    156c:	81 0f       	add	r24, r17
    156e:	df 91       	pop	r29
    1570:	cf 91       	pop	r28
    1572:	1f 91       	pop	r17
    1574:	0f 91       	pop	r16
    1576:	0c 94 1c 0a 	jmp	0x1438	; 0x1438 <transmitByte>

0000157a <printBinaryByte>:
    157a:	1f 93       	push	r17
    157c:	cf 93       	push	r28
    157e:	df 93       	push	r29
    1580:	1f 92       	push	r1
    1582:	cd b7       	in	r28, 0x3d	; 61
    1584:	de b7       	in	r29, 0x3e	; 62
    1586:	89 83       	std	Y+1, r24	; 0x01
    1588:	17 e0       	ldi	r17, 0x07	; 7
    158a:	89 81       	ldd	r24, Y+1	; 0x01
    158c:	90 e0       	ldi	r25, 0x00	; 0
    158e:	01 2e       	mov	r0, r17
    1590:	02 c0       	rjmp	.+4      	; 0x1596 <printBinaryByte+0x1c>
    1592:	95 95       	asr	r25
    1594:	87 95       	ror	r24
    1596:	0a 94       	dec	r0
    1598:	e2 f7       	brpl	.-8      	; 0x1592 <printBinaryByte+0x18>
    159a:	80 ff       	sbrs	r24, 0
    159c:	02 c0       	rjmp	.+4      	; 0x15a2 <printBinaryByte+0x28>
    159e:	81 e3       	ldi	r24, 0x31	; 49
    15a0:	01 c0       	rjmp	.+2      	; 0x15a4 <printBinaryByte+0x2a>
    15a2:	80 e3       	ldi	r24, 0x30	; 48
    15a4:	0e 94 1c 0a 	call	0x1438	; 0x1438 <transmitByte>
    15a8:	11 50       	subi	r17, 0x01	; 1
    15aa:	78 f7       	brcc	.-34     	; 0x158a <printBinaryByte+0x10>
    15ac:	0f 90       	pop	r0
    15ae:	df 91       	pop	r29
    15b0:	cf 91       	pop	r28
    15b2:	1f 91       	pop	r17
    15b4:	08 95       	ret

000015b6 <nibbleToHexCharacter>:
    15b6:	8a 30       	cpi	r24, 0x0A	; 10
    15b8:	10 f4       	brcc	.+4      	; 0x15be <nibbleToHexCharacter+0x8>
    15ba:	80 5d       	subi	r24, 0xD0	; 208
    15bc:	08 95       	ret
    15be:	89 5c       	subi	r24, 0xC9	; 201
    15c0:	08 95       	ret

000015c2 <printHexByte>:
    15c2:	cf 93       	push	r28
    15c4:	c8 2f       	mov	r28, r24
    15c6:	82 95       	swap	r24
    15c8:	8f 70       	andi	r24, 0x0F	; 15
    15ca:	0e 94 db 0a 	call	0x15b6	; 0x15b6 <nibbleToHexCharacter>
    15ce:	0e 94 1c 0a 	call	0x1438	; 0x1438 <transmitByte>
    15d2:	8c 2f       	mov	r24, r28
    15d4:	8f 70       	andi	r24, 0x0F	; 15
    15d6:	0e 94 db 0a 	call	0x15b6	; 0x15b6 <nibbleToHexCharacter>
    15da:	cf 91       	pop	r28
    15dc:	0c 94 1c 0a 	jmp	0x1438	; 0x1438 <transmitByte>

000015e0 <getNumber>:
    15e0:	0f 93       	push	r16
    15e2:	1f 93       	push	r17
    15e4:	cf 93       	push	r28
    15e6:	df 93       	push	r29
    15e8:	d0 e3       	ldi	r29, 0x30	; 48
    15ea:	c0 e3       	ldi	r28, 0x30	; 48
    15ec:	10 e3       	ldi	r17, 0x30	; 48
    15ee:	0e 94 23 0a 	call	0x1446	; 0x1446 <receiveByte>
    15f2:	08 2f       	mov	r16, r24
    15f4:	0e 94 1c 0a 	call	0x1438	; 0x1438 <transmitByte>
    15f8:	0d 30       	cpi	r16, 0x0D	; 13
    15fa:	21 f0       	breq	.+8      	; 0x1604 <getNumber+0x24>
    15fc:	1c 2f       	mov	r17, r28
    15fe:	cd 2f       	mov	r28, r29
    1600:	d0 2f       	mov	r29, r16
    1602:	f5 cf       	rjmp	.-22     	; 0x15ee <getNumber+0xe>
    1604:	10 53       	subi	r17, 0x30	; 48
    1606:	d0 53       	subi	r29, 0x30	; 48
    1608:	84 e6       	ldi	r24, 0x64	; 100
    160a:	18 9f       	mul	r17, r24
    160c:	d0 0d       	add	r29, r0
    160e:	11 24       	eor	r1, r1
    1610:	cc 0f       	add	r28, r28
    1612:	c0 56       	subi	r28, 0x60	; 96
    1614:	8c 2f       	mov	r24, r28
    1616:	88 0f       	add	r24, r24
    1618:	88 0f       	add	r24, r24
    161a:	8c 0f       	add	r24, r28
    161c:	8d 0f       	add	r24, r29
    161e:	df 91       	pop	r29
    1620:	cf 91       	pop	r28
    1622:	1f 91       	pop	r17
    1624:	0f 91       	pop	r16
    1626:	08 95       	ret

00001628 <initRobot>:
    1628:	10 92 b0 21 	sts	0x21B0, r1	; 0x8021b0 <StateRobo>
    162c:	10 92 46 03 	sts	0x0346, r1	; 0x800346 <CurStateRobo>
    1630:	e2 e4       	ldi	r30, 0x42	; 66
    1632:	f3 e0       	ldi	r31, 0x03	; 3
    1634:	82 e1       	ldi	r24, 0x12	; 18
    1636:	90 e0       	ldi	r25, 0x00	; 0
    1638:	91 83       	std	Z+1, r25	; 0x01
    163a:	80 83       	st	Z, r24
    163c:	93 83       	std	Z+3, r25	; 0x03
    163e:	82 83       	std	Z+2, r24	; 0x02
    1640:	e9 e4       	ldi	r30, 0x49	; 73
    1642:	f3 e0       	ldi	r31, 0x03	; 3
    1644:	10 82       	st	Z, r1
    1646:	11 82       	std	Z+1, r1	; 0x01
    1648:	e2 eb       	ldi	r30, 0xB2	; 178
    164a:	f1 e2       	ldi	r31, 0x21	; 33
    164c:	10 82       	st	Z, r1
    164e:	81 e0       	ldi	r24, 0x01	; 1
    1650:	81 83       	std	Z+1, r24	; 0x01
    1652:	82 83       	std	Z+2, r24	; 0x02
    1654:	83 83       	std	Z+3, r24	; 0x03
    1656:	80 93 af 21 	sts	0x21AF, r24	; 0x8021af <isExecute>
    165a:	08 95       	ret

0000165c <main>:
    165c:	0e 94 14 0b 	call	0x1628	; 0x1628 <initRobot>
    1660:	0e 94 21 05 	call	0xa42	; 0xa42 <initMaze>
    1664:	0e 94 fc 09 	call	0x13f8	; 0x13f8 <MotorPinInit>
    1668:	0e 94 02 0a 	call	0x1404	; 0x1404 <ObstacleInit>
    166c:	0e 94 57 01 	call	0x2ae	; 0x2ae <pwm_init>
    1670:	0e 94 77 01 	call	0x2ee	; 0x2ee <adc_init>
    1674:	0e 94 0b 0a 	call	0x1416	; 0x1416 <initUSART>
    1678:	89 e1       	ldi	r24, 0x19	; 25
    167a:	93 e0       	ldi	r25, 0x03	; 3
    167c:	0e 94 2a 0a 	call	0x1454	; 0x1454 <printString>
    1680:	80 91 b0 21 	lds	r24, 0x21B0	; 0x8021b0 <StateRobo>
    1684:	0e 94 95 00 	call	0x12a	; 0x12a <FiniteState>
    1688:	fb cf       	rjmp	.-10     	; 0x1680 <main+0x24>

0000168a <__udivmodqi4>:
    168a:	99 1b       	sub	r25, r25
    168c:	79 e0       	ldi	r23, 0x09	; 9
    168e:	04 c0       	rjmp	.+8      	; 0x1698 <__udivmodqi4_ep>

00001690 <__udivmodqi4_loop>:
    1690:	99 1f       	adc	r25, r25
    1692:	96 17       	cp	r25, r22
    1694:	08 f0       	brcs	.+2      	; 0x1698 <__udivmodqi4_ep>
    1696:	96 1b       	sub	r25, r22

00001698 <__udivmodqi4_ep>:
    1698:	88 1f       	adc	r24, r24
    169a:	7a 95       	dec	r23
    169c:	c9 f7       	brne	.-14     	; 0x1690 <__udivmodqi4_loop>
    169e:	80 95       	com	r24
    16a0:	08 95       	ret

000016a2 <__udivmodhi4>:
    16a2:	aa 1b       	sub	r26, r26
    16a4:	bb 1b       	sub	r27, r27
    16a6:	51 e1       	ldi	r21, 0x11	; 17
    16a8:	07 c0       	rjmp	.+14     	; 0x16b8 <__udivmodhi4_ep>

000016aa <__udivmodhi4_loop>:
    16aa:	aa 1f       	adc	r26, r26
    16ac:	bb 1f       	adc	r27, r27
    16ae:	a6 17       	cp	r26, r22
    16b0:	b7 07       	cpc	r27, r23
    16b2:	10 f0       	brcs	.+4      	; 0x16b8 <__udivmodhi4_ep>
    16b4:	a6 1b       	sub	r26, r22
    16b6:	b7 0b       	sbc	r27, r23

000016b8 <__udivmodhi4_ep>:
    16b8:	88 1f       	adc	r24, r24
    16ba:	99 1f       	adc	r25, r25
    16bc:	5a 95       	dec	r21
    16be:	a9 f7       	brne	.-22     	; 0x16aa <__udivmodhi4_loop>
    16c0:	80 95       	com	r24
    16c2:	90 95       	com	r25
    16c4:	bc 01       	movw	r22, r24
    16c6:	cd 01       	movw	r24, r26
    16c8:	08 95       	ret

000016ca <__subsf3>:
    16ca:	50 58       	subi	r21, 0x80	; 128

000016cc <__addsf3>:
    16cc:	bb 27       	eor	r27, r27
    16ce:	aa 27       	eor	r26, r26
    16d0:	0e 94 7d 0b 	call	0x16fa	; 0x16fa <__addsf3x>
    16d4:	0c 94 55 0c 	jmp	0x18aa	; 0x18aa <__fp_round>
    16d8:	0e 94 47 0c 	call	0x188e	; 0x188e <__fp_pscA>
    16dc:	38 f0       	brcs	.+14     	; 0x16ec <__addsf3+0x20>
    16de:	0e 94 4e 0c 	call	0x189c	; 0x189c <__fp_pscB>
    16e2:	20 f0       	brcs	.+8      	; 0x16ec <__addsf3+0x20>
    16e4:	39 f4       	brne	.+14     	; 0x16f4 <__addsf3+0x28>
    16e6:	9f 3f       	cpi	r25, 0xFF	; 255
    16e8:	19 f4       	brne	.+6      	; 0x16f0 <__addsf3+0x24>
    16ea:	26 f4       	brtc	.+8      	; 0x16f4 <__addsf3+0x28>
    16ec:	0c 94 44 0c 	jmp	0x1888	; 0x1888 <__fp_nan>
    16f0:	0e f4       	brtc	.+2      	; 0x16f4 <__addsf3+0x28>
    16f2:	e0 95       	com	r30
    16f4:	e7 fb       	bst	r30, 7
    16f6:	0c 94 3e 0c 	jmp	0x187c	; 0x187c <__fp_inf>

000016fa <__addsf3x>:
    16fa:	e9 2f       	mov	r30, r25
    16fc:	0e 94 66 0c 	call	0x18cc	; 0x18cc <__fp_split3>
    1700:	58 f3       	brcs	.-42     	; 0x16d8 <__addsf3+0xc>
    1702:	ba 17       	cp	r27, r26
    1704:	62 07       	cpc	r22, r18
    1706:	73 07       	cpc	r23, r19
    1708:	84 07       	cpc	r24, r20
    170a:	95 07       	cpc	r25, r21
    170c:	20 f0       	brcs	.+8      	; 0x1716 <__addsf3x+0x1c>
    170e:	79 f4       	brne	.+30     	; 0x172e <__addsf3x+0x34>
    1710:	a6 f5       	brtc	.+104    	; 0x177a <__addsf3x+0x80>
    1712:	0c 94 88 0c 	jmp	0x1910	; 0x1910 <__fp_zero>
    1716:	0e f4       	brtc	.+2      	; 0x171a <__addsf3x+0x20>
    1718:	e0 95       	com	r30
    171a:	0b 2e       	mov	r0, r27
    171c:	ba 2f       	mov	r27, r26
    171e:	a0 2d       	mov	r26, r0
    1720:	0b 01       	movw	r0, r22
    1722:	b9 01       	movw	r22, r18
    1724:	90 01       	movw	r18, r0
    1726:	0c 01       	movw	r0, r24
    1728:	ca 01       	movw	r24, r20
    172a:	a0 01       	movw	r20, r0
    172c:	11 24       	eor	r1, r1
    172e:	ff 27       	eor	r31, r31
    1730:	59 1b       	sub	r21, r25
    1732:	99 f0       	breq	.+38     	; 0x175a <__addsf3x+0x60>
    1734:	59 3f       	cpi	r21, 0xF9	; 249
    1736:	50 f4       	brcc	.+20     	; 0x174c <__addsf3x+0x52>
    1738:	50 3e       	cpi	r21, 0xE0	; 224
    173a:	68 f1       	brcs	.+90     	; 0x1796 <__addsf3x+0x9c>
    173c:	1a 16       	cp	r1, r26
    173e:	f0 40       	sbci	r31, 0x00	; 0
    1740:	a2 2f       	mov	r26, r18
    1742:	23 2f       	mov	r18, r19
    1744:	34 2f       	mov	r19, r20
    1746:	44 27       	eor	r20, r20
    1748:	58 5f       	subi	r21, 0xF8	; 248
    174a:	f3 cf       	rjmp	.-26     	; 0x1732 <__addsf3x+0x38>
    174c:	46 95       	lsr	r20
    174e:	37 95       	ror	r19
    1750:	27 95       	ror	r18
    1752:	a7 95       	ror	r26
    1754:	f0 40       	sbci	r31, 0x00	; 0
    1756:	53 95       	inc	r21
    1758:	c9 f7       	brne	.-14     	; 0x174c <__addsf3x+0x52>
    175a:	7e f4       	brtc	.+30     	; 0x177a <__addsf3x+0x80>
    175c:	1f 16       	cp	r1, r31
    175e:	ba 0b       	sbc	r27, r26
    1760:	62 0b       	sbc	r22, r18
    1762:	73 0b       	sbc	r23, r19
    1764:	84 0b       	sbc	r24, r20
    1766:	ba f0       	brmi	.+46     	; 0x1796 <__addsf3x+0x9c>
    1768:	91 50       	subi	r25, 0x01	; 1
    176a:	a1 f0       	breq	.+40     	; 0x1794 <__addsf3x+0x9a>
    176c:	ff 0f       	add	r31, r31
    176e:	bb 1f       	adc	r27, r27
    1770:	66 1f       	adc	r22, r22
    1772:	77 1f       	adc	r23, r23
    1774:	88 1f       	adc	r24, r24
    1776:	c2 f7       	brpl	.-16     	; 0x1768 <__addsf3x+0x6e>
    1778:	0e c0       	rjmp	.+28     	; 0x1796 <__addsf3x+0x9c>
    177a:	ba 0f       	add	r27, r26
    177c:	62 1f       	adc	r22, r18
    177e:	73 1f       	adc	r23, r19
    1780:	84 1f       	adc	r24, r20
    1782:	48 f4       	brcc	.+18     	; 0x1796 <__addsf3x+0x9c>
    1784:	87 95       	ror	r24
    1786:	77 95       	ror	r23
    1788:	67 95       	ror	r22
    178a:	b7 95       	ror	r27
    178c:	f7 95       	ror	r31
    178e:	9e 3f       	cpi	r25, 0xFE	; 254
    1790:	08 f0       	brcs	.+2      	; 0x1794 <__addsf3x+0x9a>
    1792:	b0 cf       	rjmp	.-160    	; 0x16f4 <__addsf3+0x28>
    1794:	93 95       	inc	r25
    1796:	88 0f       	add	r24, r24
    1798:	08 f0       	brcs	.+2      	; 0x179c <__addsf3x+0xa2>
    179a:	99 27       	eor	r25, r25
    179c:	ee 0f       	add	r30, r30
    179e:	97 95       	ror	r25
    17a0:	87 95       	ror	r24
    17a2:	08 95       	ret

000017a4 <__fixunssfsi>:
    17a4:	0e 94 6e 0c 	call	0x18dc	; 0x18dc <__fp_splitA>
    17a8:	88 f0       	brcs	.+34     	; 0x17cc <__fixunssfsi+0x28>
    17aa:	9f 57       	subi	r25, 0x7F	; 127
    17ac:	98 f0       	brcs	.+38     	; 0x17d4 <__fixunssfsi+0x30>
    17ae:	b9 2f       	mov	r27, r25
    17b0:	99 27       	eor	r25, r25
    17b2:	b7 51       	subi	r27, 0x17	; 23
    17b4:	b0 f0       	brcs	.+44     	; 0x17e2 <__fixunssfsi+0x3e>
    17b6:	e1 f0       	breq	.+56     	; 0x17f0 <__fixunssfsi+0x4c>
    17b8:	66 0f       	add	r22, r22
    17ba:	77 1f       	adc	r23, r23
    17bc:	88 1f       	adc	r24, r24
    17be:	99 1f       	adc	r25, r25
    17c0:	1a f0       	brmi	.+6      	; 0x17c8 <__fixunssfsi+0x24>
    17c2:	ba 95       	dec	r27
    17c4:	c9 f7       	brne	.-14     	; 0x17b8 <__fixunssfsi+0x14>
    17c6:	14 c0       	rjmp	.+40     	; 0x17f0 <__fixunssfsi+0x4c>
    17c8:	b1 30       	cpi	r27, 0x01	; 1
    17ca:	91 f0       	breq	.+36     	; 0x17f0 <__fixunssfsi+0x4c>
    17cc:	0e 94 88 0c 	call	0x1910	; 0x1910 <__fp_zero>
    17d0:	b1 e0       	ldi	r27, 0x01	; 1
    17d2:	08 95       	ret
    17d4:	0c 94 88 0c 	jmp	0x1910	; 0x1910 <__fp_zero>
    17d8:	67 2f       	mov	r22, r23
    17da:	78 2f       	mov	r23, r24
    17dc:	88 27       	eor	r24, r24
    17de:	b8 5f       	subi	r27, 0xF8	; 248
    17e0:	39 f0       	breq	.+14     	; 0x17f0 <__fixunssfsi+0x4c>
    17e2:	b9 3f       	cpi	r27, 0xF9	; 249
    17e4:	cc f3       	brlt	.-14     	; 0x17d8 <__fixunssfsi+0x34>
    17e6:	86 95       	lsr	r24
    17e8:	77 95       	ror	r23
    17ea:	67 95       	ror	r22
    17ec:	b3 95       	inc	r27
    17ee:	d9 f7       	brne	.-10     	; 0x17e6 <__fixunssfsi+0x42>
    17f0:	3e f4       	brtc	.+14     	; 0x1800 <__fixunssfsi+0x5c>
    17f2:	90 95       	com	r25
    17f4:	80 95       	com	r24
    17f6:	70 95       	com	r23
    17f8:	61 95       	neg	r22
    17fa:	7f 4f       	sbci	r23, 0xFF	; 255
    17fc:	8f 4f       	sbci	r24, 0xFF	; 255
    17fe:	9f 4f       	sbci	r25, 0xFF	; 255
    1800:	08 95       	ret

00001802 <__floatunsisf>:
    1802:	e8 94       	clt
    1804:	09 c0       	rjmp	.+18     	; 0x1818 <__floatsisf+0x12>

00001806 <__floatsisf>:
    1806:	97 fb       	bst	r25, 7
    1808:	3e f4       	brtc	.+14     	; 0x1818 <__floatsisf+0x12>
    180a:	90 95       	com	r25
    180c:	80 95       	com	r24
    180e:	70 95       	com	r23
    1810:	61 95       	neg	r22
    1812:	7f 4f       	sbci	r23, 0xFF	; 255
    1814:	8f 4f       	sbci	r24, 0xFF	; 255
    1816:	9f 4f       	sbci	r25, 0xFF	; 255
    1818:	99 23       	and	r25, r25
    181a:	a9 f0       	breq	.+42     	; 0x1846 <__floatsisf+0x40>
    181c:	f9 2f       	mov	r31, r25
    181e:	96 e9       	ldi	r25, 0x96	; 150
    1820:	bb 27       	eor	r27, r27
    1822:	93 95       	inc	r25
    1824:	f6 95       	lsr	r31
    1826:	87 95       	ror	r24
    1828:	77 95       	ror	r23
    182a:	67 95       	ror	r22
    182c:	b7 95       	ror	r27
    182e:	f1 11       	cpse	r31, r1
    1830:	f8 cf       	rjmp	.-16     	; 0x1822 <__floatsisf+0x1c>
    1832:	fa f4       	brpl	.+62     	; 0x1872 <__floatsisf+0x6c>
    1834:	bb 0f       	add	r27, r27
    1836:	11 f4       	brne	.+4      	; 0x183c <__floatsisf+0x36>
    1838:	60 ff       	sbrs	r22, 0
    183a:	1b c0       	rjmp	.+54     	; 0x1872 <__floatsisf+0x6c>
    183c:	6f 5f       	subi	r22, 0xFF	; 255
    183e:	7f 4f       	sbci	r23, 0xFF	; 255
    1840:	8f 4f       	sbci	r24, 0xFF	; 255
    1842:	9f 4f       	sbci	r25, 0xFF	; 255
    1844:	16 c0       	rjmp	.+44     	; 0x1872 <__floatsisf+0x6c>
    1846:	88 23       	and	r24, r24
    1848:	11 f0       	breq	.+4      	; 0x184e <__floatsisf+0x48>
    184a:	96 e9       	ldi	r25, 0x96	; 150
    184c:	11 c0       	rjmp	.+34     	; 0x1870 <__floatsisf+0x6a>
    184e:	77 23       	and	r23, r23
    1850:	21 f0       	breq	.+8      	; 0x185a <__floatsisf+0x54>
    1852:	9e e8       	ldi	r25, 0x8E	; 142
    1854:	87 2f       	mov	r24, r23
    1856:	76 2f       	mov	r23, r22
    1858:	05 c0       	rjmp	.+10     	; 0x1864 <__floatsisf+0x5e>
    185a:	66 23       	and	r22, r22
    185c:	71 f0       	breq	.+28     	; 0x187a <__floatsisf+0x74>
    185e:	96 e8       	ldi	r25, 0x86	; 134
    1860:	86 2f       	mov	r24, r22
    1862:	70 e0       	ldi	r23, 0x00	; 0
    1864:	60 e0       	ldi	r22, 0x00	; 0
    1866:	2a f0       	brmi	.+10     	; 0x1872 <__floatsisf+0x6c>
    1868:	9a 95       	dec	r25
    186a:	66 0f       	add	r22, r22
    186c:	77 1f       	adc	r23, r23
    186e:	88 1f       	adc	r24, r24
    1870:	da f7       	brpl	.-10     	; 0x1868 <__floatsisf+0x62>
    1872:	88 0f       	add	r24, r24
    1874:	96 95       	lsr	r25
    1876:	87 95       	ror	r24
    1878:	97 f9       	bld	r25, 7
    187a:	08 95       	ret

0000187c <__fp_inf>:
    187c:	97 f9       	bld	r25, 7
    187e:	9f 67       	ori	r25, 0x7F	; 127
    1880:	80 e8       	ldi	r24, 0x80	; 128
    1882:	70 e0       	ldi	r23, 0x00	; 0
    1884:	60 e0       	ldi	r22, 0x00	; 0
    1886:	08 95       	ret

00001888 <__fp_nan>:
    1888:	9f ef       	ldi	r25, 0xFF	; 255
    188a:	80 ec       	ldi	r24, 0xC0	; 192
    188c:	08 95       	ret

0000188e <__fp_pscA>:
    188e:	00 24       	eor	r0, r0
    1890:	0a 94       	dec	r0
    1892:	16 16       	cp	r1, r22
    1894:	17 06       	cpc	r1, r23
    1896:	18 06       	cpc	r1, r24
    1898:	09 06       	cpc	r0, r25
    189a:	08 95       	ret

0000189c <__fp_pscB>:
    189c:	00 24       	eor	r0, r0
    189e:	0a 94       	dec	r0
    18a0:	12 16       	cp	r1, r18
    18a2:	13 06       	cpc	r1, r19
    18a4:	14 06       	cpc	r1, r20
    18a6:	05 06       	cpc	r0, r21
    18a8:	08 95       	ret

000018aa <__fp_round>:
    18aa:	09 2e       	mov	r0, r25
    18ac:	03 94       	inc	r0
    18ae:	00 0c       	add	r0, r0
    18b0:	11 f4       	brne	.+4      	; 0x18b6 <__fp_round+0xc>
    18b2:	88 23       	and	r24, r24
    18b4:	52 f0       	brmi	.+20     	; 0x18ca <__fp_round+0x20>
    18b6:	bb 0f       	add	r27, r27
    18b8:	40 f4       	brcc	.+16     	; 0x18ca <__fp_round+0x20>
    18ba:	bf 2b       	or	r27, r31
    18bc:	11 f4       	brne	.+4      	; 0x18c2 <__fp_round+0x18>
    18be:	60 ff       	sbrs	r22, 0
    18c0:	04 c0       	rjmp	.+8      	; 0x18ca <__fp_round+0x20>
    18c2:	6f 5f       	subi	r22, 0xFF	; 255
    18c4:	7f 4f       	sbci	r23, 0xFF	; 255
    18c6:	8f 4f       	sbci	r24, 0xFF	; 255
    18c8:	9f 4f       	sbci	r25, 0xFF	; 255
    18ca:	08 95       	ret

000018cc <__fp_split3>:
    18cc:	57 fd       	sbrc	r21, 7
    18ce:	90 58       	subi	r25, 0x80	; 128
    18d0:	44 0f       	add	r20, r20
    18d2:	55 1f       	adc	r21, r21
    18d4:	59 f0       	breq	.+22     	; 0x18ec <__fp_splitA+0x10>
    18d6:	5f 3f       	cpi	r21, 0xFF	; 255
    18d8:	71 f0       	breq	.+28     	; 0x18f6 <__fp_splitA+0x1a>
    18da:	47 95       	ror	r20

000018dc <__fp_splitA>:
    18dc:	88 0f       	add	r24, r24
    18de:	97 fb       	bst	r25, 7
    18e0:	99 1f       	adc	r25, r25
    18e2:	61 f0       	breq	.+24     	; 0x18fc <__fp_splitA+0x20>
    18e4:	9f 3f       	cpi	r25, 0xFF	; 255
    18e6:	79 f0       	breq	.+30     	; 0x1906 <__fp_splitA+0x2a>
    18e8:	87 95       	ror	r24
    18ea:	08 95       	ret
    18ec:	12 16       	cp	r1, r18
    18ee:	13 06       	cpc	r1, r19
    18f0:	14 06       	cpc	r1, r20
    18f2:	55 1f       	adc	r21, r21
    18f4:	f2 cf       	rjmp	.-28     	; 0x18da <__fp_split3+0xe>
    18f6:	46 95       	lsr	r20
    18f8:	f1 df       	rcall	.-30     	; 0x18dc <__fp_splitA>
    18fa:	08 c0       	rjmp	.+16     	; 0x190c <__fp_splitA+0x30>
    18fc:	16 16       	cp	r1, r22
    18fe:	17 06       	cpc	r1, r23
    1900:	18 06       	cpc	r1, r24
    1902:	99 1f       	adc	r25, r25
    1904:	f1 cf       	rjmp	.-30     	; 0x18e8 <__fp_splitA+0xc>
    1906:	86 95       	lsr	r24
    1908:	71 05       	cpc	r23, r1
    190a:	61 05       	cpc	r22, r1
    190c:	08 94       	sec
    190e:	08 95       	ret

00001910 <__fp_zero>:
    1910:	e8 94       	clt

00001912 <__fp_szero>:
    1912:	bb 27       	eor	r27, r27
    1914:	66 27       	eor	r22, r22
    1916:	77 27       	eor	r23, r23
    1918:	cb 01       	movw	r24, r22
    191a:	97 f9       	bld	r25, 7
    191c:	08 95       	ret

0000191e <__mulsf3>:
    191e:	0e 94 a2 0c 	call	0x1944	; 0x1944 <__mulsf3x>
    1922:	0c 94 55 0c 	jmp	0x18aa	; 0x18aa <__fp_round>
    1926:	0e 94 47 0c 	call	0x188e	; 0x188e <__fp_pscA>
    192a:	38 f0       	brcs	.+14     	; 0x193a <__mulsf3+0x1c>
    192c:	0e 94 4e 0c 	call	0x189c	; 0x189c <__fp_pscB>
    1930:	20 f0       	brcs	.+8      	; 0x193a <__mulsf3+0x1c>
    1932:	95 23       	and	r25, r21
    1934:	11 f0       	breq	.+4      	; 0x193a <__mulsf3+0x1c>
    1936:	0c 94 3e 0c 	jmp	0x187c	; 0x187c <__fp_inf>
    193a:	0c 94 44 0c 	jmp	0x1888	; 0x1888 <__fp_nan>
    193e:	11 24       	eor	r1, r1
    1940:	0c 94 89 0c 	jmp	0x1912	; 0x1912 <__fp_szero>

00001944 <__mulsf3x>:
    1944:	0e 94 66 0c 	call	0x18cc	; 0x18cc <__fp_split3>
    1948:	70 f3       	brcs	.-36     	; 0x1926 <__mulsf3+0x8>

0000194a <__mulsf3_pse>:
    194a:	95 9f       	mul	r25, r21
    194c:	c1 f3       	breq	.-16     	; 0x193e <__mulsf3+0x20>
    194e:	95 0f       	add	r25, r21
    1950:	50 e0       	ldi	r21, 0x00	; 0
    1952:	55 1f       	adc	r21, r21
    1954:	62 9f       	mul	r22, r18
    1956:	f0 01       	movw	r30, r0
    1958:	72 9f       	mul	r23, r18
    195a:	bb 27       	eor	r27, r27
    195c:	f0 0d       	add	r31, r0
    195e:	b1 1d       	adc	r27, r1
    1960:	63 9f       	mul	r22, r19
    1962:	aa 27       	eor	r26, r26
    1964:	f0 0d       	add	r31, r0
    1966:	b1 1d       	adc	r27, r1
    1968:	aa 1f       	adc	r26, r26
    196a:	64 9f       	mul	r22, r20
    196c:	66 27       	eor	r22, r22
    196e:	b0 0d       	add	r27, r0
    1970:	a1 1d       	adc	r26, r1
    1972:	66 1f       	adc	r22, r22
    1974:	82 9f       	mul	r24, r18
    1976:	22 27       	eor	r18, r18
    1978:	b0 0d       	add	r27, r0
    197a:	a1 1d       	adc	r26, r1
    197c:	62 1f       	adc	r22, r18
    197e:	73 9f       	mul	r23, r19
    1980:	b0 0d       	add	r27, r0
    1982:	a1 1d       	adc	r26, r1
    1984:	62 1f       	adc	r22, r18
    1986:	83 9f       	mul	r24, r19
    1988:	a0 0d       	add	r26, r0
    198a:	61 1d       	adc	r22, r1
    198c:	22 1f       	adc	r18, r18
    198e:	74 9f       	mul	r23, r20
    1990:	33 27       	eor	r19, r19
    1992:	a0 0d       	add	r26, r0
    1994:	61 1d       	adc	r22, r1
    1996:	23 1f       	adc	r18, r19
    1998:	84 9f       	mul	r24, r20
    199a:	60 0d       	add	r22, r0
    199c:	21 1d       	adc	r18, r1
    199e:	82 2f       	mov	r24, r18
    19a0:	76 2f       	mov	r23, r22
    19a2:	6a 2f       	mov	r22, r26
    19a4:	11 24       	eor	r1, r1
    19a6:	9f 57       	subi	r25, 0x7F	; 127
    19a8:	50 40       	sbci	r21, 0x00	; 0
    19aa:	9a f0       	brmi	.+38     	; 0x19d2 <__mulsf3_pse+0x88>
    19ac:	f1 f0       	breq	.+60     	; 0x19ea <__mulsf3_pse+0xa0>
    19ae:	88 23       	and	r24, r24
    19b0:	4a f0       	brmi	.+18     	; 0x19c4 <__mulsf3_pse+0x7a>
    19b2:	ee 0f       	add	r30, r30
    19b4:	ff 1f       	adc	r31, r31
    19b6:	bb 1f       	adc	r27, r27
    19b8:	66 1f       	adc	r22, r22
    19ba:	77 1f       	adc	r23, r23
    19bc:	88 1f       	adc	r24, r24
    19be:	91 50       	subi	r25, 0x01	; 1
    19c0:	50 40       	sbci	r21, 0x00	; 0
    19c2:	a9 f7       	brne	.-22     	; 0x19ae <__mulsf3_pse+0x64>
    19c4:	9e 3f       	cpi	r25, 0xFE	; 254
    19c6:	51 05       	cpc	r21, r1
    19c8:	80 f0       	brcs	.+32     	; 0x19ea <__mulsf3_pse+0xa0>
    19ca:	0c 94 3e 0c 	jmp	0x187c	; 0x187c <__fp_inf>
    19ce:	0c 94 89 0c 	jmp	0x1912	; 0x1912 <__fp_szero>
    19d2:	5f 3f       	cpi	r21, 0xFF	; 255
    19d4:	e4 f3       	brlt	.-8      	; 0x19ce <__mulsf3_pse+0x84>
    19d6:	98 3e       	cpi	r25, 0xE8	; 232
    19d8:	d4 f3       	brlt	.-12     	; 0x19ce <__mulsf3_pse+0x84>
    19da:	86 95       	lsr	r24
    19dc:	77 95       	ror	r23
    19de:	67 95       	ror	r22
    19e0:	b7 95       	ror	r27
    19e2:	f7 95       	ror	r31
    19e4:	e7 95       	ror	r30
    19e6:	9f 5f       	subi	r25, 0xFF	; 255
    19e8:	c1 f7       	brne	.-16     	; 0x19da <__mulsf3_pse+0x90>
    19ea:	fe 2b       	or	r31, r30
    19ec:	88 0f       	add	r24, r24
    19ee:	91 1d       	adc	r25, r1
    19f0:	96 95       	lsr	r25
    19f2:	87 95       	ror	r24
    19f4:	97 f9       	bld	r25, 7
    19f6:	08 95       	ret
    19f8:	19 f4       	brne	.+6      	; 0x1a00 <__mulsf3_pse+0xb6>
    19fa:	16 f4       	brtc	.+4      	; 0x1a00 <__mulsf3_pse+0xb6>
    19fc:	0c 94 44 0c 	jmp	0x1888	; 0x1888 <__fp_nan>
    1a00:	0c 94 42 0d 	jmp	0x1a84	; 0x1a84 <__fp_mpack>

00001a04 <sqrt>:
    1a04:	0e 94 6e 0c 	call	0x18dc	; 0x18dc <__fp_splitA>
    1a08:	b8 f3       	brcs	.-18     	; 0x19f8 <__mulsf3_pse+0xae>
    1a0a:	99 23       	and	r25, r25
    1a0c:	c9 f3       	breq	.-14     	; 0x1a00 <__mulsf3_pse+0xb6>
    1a0e:	b6 f3       	brts	.-20     	; 0x19fc <__mulsf3_pse+0xb2>
    1a10:	9f 57       	subi	r25, 0x7F	; 127
    1a12:	55 0b       	sbc	r21, r21
    1a14:	87 ff       	sbrs	r24, 7
    1a16:	0e 94 50 0d 	call	0x1aa0	; 0x1aa0 <__fp_norm2>
    1a1a:	00 24       	eor	r0, r0
    1a1c:	a0 e6       	ldi	r26, 0x60	; 96
    1a1e:	40 ea       	ldi	r20, 0xA0	; 160
    1a20:	90 01       	movw	r18, r0
    1a22:	80 58       	subi	r24, 0x80	; 128
    1a24:	56 95       	lsr	r21
    1a26:	97 95       	ror	r25
    1a28:	28 f4       	brcc	.+10     	; 0x1a34 <sqrt+0x30>
    1a2a:	80 5c       	subi	r24, 0xC0	; 192
    1a2c:	66 0f       	add	r22, r22
    1a2e:	77 1f       	adc	r23, r23
    1a30:	88 1f       	adc	r24, r24
    1a32:	20 f0       	brcs	.+8      	; 0x1a3c <sqrt+0x38>
    1a34:	26 17       	cp	r18, r22
    1a36:	37 07       	cpc	r19, r23
    1a38:	48 07       	cpc	r20, r24
    1a3a:	30 f4       	brcc	.+12     	; 0x1a48 <sqrt+0x44>
    1a3c:	62 1b       	sub	r22, r18
    1a3e:	73 0b       	sbc	r23, r19
    1a40:	84 0b       	sbc	r24, r20
    1a42:	20 29       	or	r18, r0
    1a44:	31 29       	or	r19, r1
    1a46:	4a 2b       	or	r20, r26
    1a48:	a6 95       	lsr	r26
    1a4a:	17 94       	ror	r1
    1a4c:	07 94       	ror	r0
    1a4e:	20 25       	eor	r18, r0
    1a50:	31 25       	eor	r19, r1
    1a52:	4a 27       	eor	r20, r26
    1a54:	58 f7       	brcc	.-42     	; 0x1a2c <sqrt+0x28>
    1a56:	66 0f       	add	r22, r22
    1a58:	77 1f       	adc	r23, r23
    1a5a:	88 1f       	adc	r24, r24
    1a5c:	20 f0       	brcs	.+8      	; 0x1a66 <sqrt+0x62>
    1a5e:	26 17       	cp	r18, r22
    1a60:	37 07       	cpc	r19, r23
    1a62:	48 07       	cpc	r20, r24
    1a64:	30 f4       	brcc	.+12     	; 0x1a72 <sqrt+0x6e>
    1a66:	62 0b       	sbc	r22, r18
    1a68:	73 0b       	sbc	r23, r19
    1a6a:	84 0b       	sbc	r24, r20
    1a6c:	20 0d       	add	r18, r0
    1a6e:	31 1d       	adc	r19, r1
    1a70:	41 1d       	adc	r20, r1
    1a72:	a0 95       	com	r26
    1a74:	81 f7       	brne	.-32     	; 0x1a56 <sqrt+0x52>
    1a76:	b9 01       	movw	r22, r18
    1a78:	84 2f       	mov	r24, r20
    1a7a:	91 58       	subi	r25, 0x81	; 129
    1a7c:	88 0f       	add	r24, r24
    1a7e:	96 95       	lsr	r25
    1a80:	87 95       	ror	r24
    1a82:	08 95       	ret

00001a84 <__fp_mpack>:
    1a84:	9f 3f       	cpi	r25, 0xFF	; 255
    1a86:	31 f0       	breq	.+12     	; 0x1a94 <__fp_mpack_finite+0xc>

00001a88 <__fp_mpack_finite>:
    1a88:	91 50       	subi	r25, 0x01	; 1
    1a8a:	20 f4       	brcc	.+8      	; 0x1a94 <__fp_mpack_finite+0xc>
    1a8c:	87 95       	ror	r24
    1a8e:	77 95       	ror	r23
    1a90:	67 95       	ror	r22
    1a92:	b7 95       	ror	r27
    1a94:	88 0f       	add	r24, r24
    1a96:	91 1d       	adc	r25, r1
    1a98:	96 95       	lsr	r25
    1a9a:	87 95       	ror	r24
    1a9c:	97 f9       	bld	r25, 7
    1a9e:	08 95       	ret

00001aa0 <__fp_norm2>:
    1aa0:	91 50       	subi	r25, 0x01	; 1
    1aa2:	50 40       	sbci	r21, 0x00	; 0
    1aa4:	66 0f       	add	r22, r22
    1aa6:	77 1f       	adc	r23, r23
    1aa8:	88 1f       	adc	r24, r24
    1aaa:	d2 f7       	brpl	.-12     	; 0x1aa0 <__fp_norm2>
    1aac:	08 95       	ret

00001aae <_exit>:
    1aae:	f8 94       	cli

00001ab0 <__stop_program>:
    1ab0:	ff cf       	rjmp	.-2      	; 0x1ab0 <__stop_program>
